(lp0
(dp1
S'index'
p2
I1
sS'company'
p3
S'Kenesto Corp.'
p4
sS'period'
p5
I28
sS'location'
p6
S'Israel'
p7
sS'ID'
p8
I0
sS'job_title'
p9
S'Senior Software Developer'
p10
sa(dp11
g3
S'Webcollage'
p12
sg5
I60
sS'total_money_raised'
p13
S'$19.6M'
p14
sS'is_public'
p15
I00
sS'number_of_employees'
p16
I100
sg8
I1
sS'category'
p17
S'software'
p18
sg2
I2
sS'is_acquired'
p19
I00
sS'founded_year'
p20
I1999
sg6
S'Israel'
p21
sg9
S'Senior Java Developer'
p22
sa(dp23
g2
I3
sg3
S'BMC Software'
p24
sg5
I61
sg6
S'Israel'
p25
sg8
I2
sg9
S'Software Programer'
p26
sa(dp27
g3
S'Convergys'
p28
sg5
I19
sg13
S'$0'
p29
sg15
I00
sg16
I75000
sg8
I3
sg17
S'consulting'
p30
sg2
I4
sg19
I00
sg20
I1998
sg6
S'Israel'
p31
sg9
S'Software Developer'
p32
sa(dp33
g2
I1
sg3
S'Intel Corporation'
p34
sg5
I48
sg8
I4
sg9
S'Program Engineering Manager'
p35
sa(dp36
g2
I2
sg3
S'Intel Corporation'
p37
sg5
I45
sg8
I5
sg9
S'FW development lead'
p38
sa(dp39
g2
I3
sg3
S'Intel Corporation'
p40
sg5
I11
sg8
I6
sg9
S'RT Embedded SW'
p41
sa(dp42
g3
S'Atrica'
p43
sg5
I19
sg13
S'$22.2M'
p44
sg15
I00
sg16
Nsg8
I7
sg17
S'public_relations'
p45
sg2
I4
sg19
I00
sg20
I2000
sg9
S'RT Embedded SW Engineer'
p46
sa(dp47
g2
I5
sg3
S'G-Connect'
p48
sg5
I37
sg8
I8
sg9
S'RT Embedded SW Engineer'
p49
sa(dp50
g2
I1
sg3
S'Psolution'
p51
sg5
I37
sg6
S'Ramat Gan'
p52
sg8
I9
sg9
S'Senior programmer'
p53
sa(dp54
g2
I2
sg3
S'Matrix'
p55
sg5
I18
sg8
I10
sg9
S'senior programmer'
p56
sa(dp57
g2
I3
sg3
S'Ness Technologies'
p58
sg5
I24
sg8
I11
sg9
S'Senior Programmer'
p59
sa(dp60
g17
S'software'
p61
sg2
I1
sg19
I01
sg3
S'Retalix'
p62
sg5
I13
sg8
I12
sg13
S'$0'
p63
sg6
S"Ra'anana, Israel"
p64
sg15
I00
sg16
Nsg20
NsS'acquisition_price'
p65
F650000000.0
sg9
S'Software Engineer'
p66
sa(dp67
g2
I2
sg3
S'Matrix'
p68
sg5
I14
sg6
S'Israel'
p69
sg8
I13
sg9
S'Software engineer'
p70
sa(dp71
g2
I3
sg3
S'NICE Systems'
p72
sg5
I51
sg6
S'Israel'
p73
sg8
I14
sg9
S'Software engineer'
p74
sa(dp75
g2
I1
sg3
S'N.I.P.'
p76
sg5
I12
sg6
S'Israel'
p77
sg8
I15
sg9
S'DBA Oracle'
p78
sa(dp79
g2
I2
sg3
S'Ivory Software Systems'
p80
sg5
I11
sg6
S'Tel-Aviv, Israel'
p81
sg8
I16
sg9
S'PL/SQL programmer, DBA Oracle.'
p82
sa(dp83
g2
I3
sg3
S'Freelance DBA / DB programmer'
p84
sg5
I20
sg6
S'Tel Aviv, Israel'
p85
sg8
I17
sg9
S'Freelance applicative DBA and DB programmer'
p86
sa(dp87
g2
I1
sg3
S'Tel-Aviv Stock Exchange (on behalf of Teramips)'
p88
sg5
I81
sg8
I18
sg9
S'Senior Programmer'
p89
sa(dp90
g2
I2
sg3
S'Teramips'
p91
sg5
I82
sg8
I19
sg9
S'Senior Programmer'
p92
sa(dp93
g2
I3
sg3
S'Semantrics'
p94
sg5
I13
sg8
I20
sg9
S'Senior Programmer'
p95
sa(dp96
g3
S'Telmap'
p97
sg5
I31
sg13
S'$0'
p98
sg15
I00
sg16
I200
sg8
I21
sg17
S'mobile'
p99
sg2
I4
sg19
I00
sg20
I2000
sg9
S'Senior Programmer'
p100
sa(dp101
g2
I5
sg3
S'Cobrador'
p102
sg5
I18
sg8
I22
sg9
S'Senior Programmer'
p103
sa(dp104
g2
I6
sg3
S'Jewish Agency'
p105
sg5
I18
sg8
I23
sg9
S'Instructor'
p106
sa(dp107
g3
S'Naor Weissmann'
p108
sg5
I19
sg13
S'$0'
p109
sg15
I00
sg16
I3
sg8
I24
sg17
S'software'
p110
sg2
I1
sg19
I00
sg20
I2012
sg9
S'CTO and Co-Founder'
p111
sa(dp112
g2
I2
sg3
S'Michael Kessler'
p113
sg5
I30
sg8
I25
sg9
S'CEO and Co-Founder'
p114
sa(dp115
g2
I3
sg3
S'Gimao'
p116
sg5
I48
sg8
I26
sg9
S'Co-Founder,Board Member'
p117
sa(dp118
g2
I4
sg3
S'Speedvend Technologies Ltd.'
p119
sg5
I23
sg8
I27
sg9
S'VP R&D'
p120
sa(dp121
g2
I5
sg3
S'SAP Labs'
p122
sg5
I25
sg8
I28
sg9
S'Development Manager'
p123
sa(dp124
g2
I6
sg3
S'Tal Shain'
p125
sg5
I19
sg8
I29
sg9
S'Team Leader'
p126
sa(dp127
g2
I7
sg3
S'Dotan Harit'
p128
sg5
I13
sg8
I30
sg9
S'Team Leader'
p129
sa(dp130
g2
I8
sg3
S'various software companies'
p131
sg5
I73
sg8
I31
sg9
S'sw engineer'
p132
sa(dp133
g17
S'search'
p134
sg2
I1
sS'valuation_amount'
p135
NsS'public_year'
p136
I2004
sg16
I28000
sg3
S'Google'
p137
sg5
I27
sg8
I32
sg13
S'$25.1M'
p138
sg15
I01
sg19
I00
sg20
I1998
sg9
S'Senior Sales Engineer, Android Partnerships'
p139
sa(dp140
g17
S'search'
p141
sg2
I2
sg135
Nsg136
I2004
sg16
I28000
sg3
S'Google'
p142
sg5
I36
sg8
I33
sg13
S'$25.1M'
p143
sg15
I01
sg19
I00
sg20
I1998
sg9
S'Partner Technology Manager'
p144
sa(dp145
g17
S'search'
p146
sg2
I3
sg135
Nsg136
I2004
sg16
I28000
sg3
S'Google'
p147
sg5
I7
sg8
I34
sg13
S'$25.1M'
p148
sg15
I01
sg19
I00
sg20
I1998
sg9
S'Lead Mobile Sales Engineer'
p149
sa(dp150
g17
S'search'
p151
sg2
I4
sg135
Nsg136
I2004
sg16
I28000
sg3
S'Google'
p152
sg5
I11
sg8
I35
sg13
S'$25.1M'
p153
sg15
I01
sg19
I00
sg20
I1998
sg9
S'Sales Engineer'
p154
sa(dp155
g17
S'software'
p156
sg2
I5
sg19
I01
sg3
S'Volantis'
p157
sg5
I12
sg8
I36
sg13
S'$7.5M'
p158
sg15
I00
sg16
Nsg20
I2000
sg65
Nsg9
S'Technical Account Manager'
p159
sa(dp160
g17
S'software'
p161
sg2
I6
sg19
I01
sg3
S'Volantis'
p162
sg5
I40
sg8
I37
sg13
S'$7.5M'
p163
sg15
I00
sg16
Nsg20
I2000
sg65
Nsg9
S'Product Manager'
p164
sa(dp165
g17
S'software'
p166
sg2
I7
sg19
I01
sg3
S'Volantis'
p167
sg5
I15
sg8
I38
sg13
S'$7.5M'
p168
sg15
I00
sg16
Nsg20
I2000
sg65
Nsg9
S'Device Engineer'
p169
sa(dp170
g2
I8
sg3
S'Commerce NTI'
p171
sg5
I7
sg8
I39
sg9
S'Web Developer'
p172
sa(dp173
g2
I1
sg3
S'Madison Square Garden'
p174
sg5
I25
sg8
I40
sg9
S'VP Affiliate Marketing'
p175
sa(dp176
g2
I2
sg3
S'Madison Square Garden'
p177
sg5
I44
sg8
I41
sg9
S'Director Marketing Solutions'
p178
sa(dp179
g3
S'Fuse'
p180
sg5
I28
sg13
S'$0'
p181
sg15
I00
sg16
I7
sg8
I42
sg17
S'web'
p182
sg2
I3
sg19
I00
sg20
I2004
sg9
S'Consumer Marketing Manager'
p183
sa(dp184
g3
S'Fuse'
p185
sg5
I5
sg13
S'$0'
p186
sg15
I00
sg16
I7
sg8
I43
sg17
S'web'
p187
sg2
I4
sg19
I00
sg20
I2004
sg9
S'Marketing Coordinator'
p188
sa(dp189
g17
S'mobile'
p190
sg2
I1
sg135
Nsg136
Nsg16
Nsg3
S'Alvarion'
p191
sg5
I0
sg8
I44
sg13
S'$0'
p192
sg15
I01
sg19
I00
sg20
Nsg9
S'VP Platform and Technology dep., R&D division'
p193
sa(dp194
g2
I1
sg3
S'Citi'
p195
sg5
I4
sg6
S'Citi Innovation Lab, Tel Aviv, Israel'
p196
sg8
I45
sg9
S'Project Manager and Development Team Leader'
p197
sa(dp198
g2
I2
sg3
S'Citi'
p199
sg5
I7
sg6
S'Citi Innovation Lab, Tel Aviv, Israel'
p200
sg8
I46
sg9
S'Leading Mobile Software Engineer'
p201
sa(dp202
g17
S'software'
p203
sg2
I3
sg135
Nsg136
I1986
sg16
I90000
sg3
S'Benjamin Mark Zhitomirsky'
p204
sg5
I56
sg8
I47
sg13
S'$0'
p205
sg15
I01
sg19
I00
sg20
I1974
sg9
S'Leading Software Engineer'
p206
sa(dp207
g17
S'hardware'
p208
sg2
I4
sg135
Nsg136
I1978
sg16
I86300
sg3
S'Guy Ben-Haim'
p209
sg5
I24
sg8
I48
sg13
S'$0'
p210
sg6
S'Design Automation Department, Israeli Design Center'
p211
sg15
I01
sg19
I00
sg20
I1968
sg9
S'Software Engineer'
p212
sa(dp213
g3
S'Bizzabo'
p214
sg5
I34
sg13
S'$1.5M'
p215
sg15
I00
sg16
I6
sg8
I49
sg17
S'mobile'
p216
sg2
I1
sg19
I00
sg20
I2011
sg9
S'Co-Founder | Chief Marketing & Business Development'
p217
sa(dp218
g2
I2
sg3
S'A.Y.A.D.R Investments Ltd.'
p219
sg5
I64
sg8
I50
sg9
S'Director - Chief Operations Officer'
p220
sa(dp221
g2
I3
sg3
S'Plenum, Private Investment Bank'
p222
sg5
I21
sg8
I51
sg9
S'Analyst & PA to Chairman'
p223
sa(dp224
g2
I4
sg3
S'Yoni Shtein'
p225
sg5
I68
sg8
I52
sg9
S'Commander (Captain)'
p226
sa(dp227
g3
S'Come2Play'
p228
sg5
I76
sg13
S'$0'
p229
sg15
I00
sg16
I7
sg8
I53
sg17
S'software'
p230
sg2
I1
sg19
I00
sg20
I2007
sg9
S'Co-Founder and CEO'
p231
sa(dp232
g2
I2
sg3
S'TovTV'
p233
sg5
I45
sg8
I54
sg9
S'Co-Founder and CEO'
p234
sa(dp235
g2
I1
sg3
S'Shine Security'
p236
sg5
I21
sg8
I55
sg9
S'Founder & VP R&D'
p237
sa(dp238
g3
S'Comverse'
p239
sg5
I25
sg13
S'$0'
p240
sg15
I00
sg16
Nsg8
I56
sg17
S'software'
p241
sg2
I2
sg19
I00
sg20
I1984
sg6
S'Israel'
p242
sg9
S'Technical Manager & R&D Expert'
p243
sa(dp244
g2
I3
sg3
S'COMVERSE JAPAN'
p245
sg5
I60
sg8
I57
sg9
S'R&D Manager / Site Manager, SMS Product Unit'
p246
sa(dp247
g2
I4
sg3
S'COMVERSE TECHNOLOGIES'
p248
sg5
I36
sg8
I58
sg9
S'R&D Team Leader'
p249
sa(dp250
g2
I5
sg3
S'NETOLOGY LTD. (subsidiary of Comverse)'
p251
sg5
I24
sg8
I59
sg9
S'Developer'
p252
sa(dp253
g2
I6
sg3
S'THE SCO GROUP, INC.'
p254
sg5
I24
sg8
I60
sg9
S'Professional Services Engineer'
p255
sa(dp256
g2
I1
sg3
S'PlaySight Interactive Ltd.'
p257
sg5
I19
sg8
I61
sg9
S'Advisor'
p258
sa(dp259
g3
S'eTribez'
p260
sg5
I25
sg13
S'$0'
p261
sg15
I00
sg16
I14
sg8
I62
sg17
S'software'
p262
sg2
I2
sg19
I00
sg20
Nsg9
S'Founding advisor'
p263
sa(dp264
g2
I3
sg3
S'Karine Gidali'
p265
sg5
I39
sg8
I63
sg9
S'Advisor'
p266
sa(dp267
g2
I4
sg3
S'LightSaber Ventures'
p268
sg5
I41
sg8
I64
sg9
S'Owner'
p269
sa(dp270
g3
S'Comability'
p271
sg5
I32
sg13
S'$6M'
p272
sg15
I00
sg16
Nsg8
I65
sg17
S'public_relations'
p273
sg2
I5
sg19
I00
sg20
I2003
sg9
S'CEO'
p274
sa(dp275
g3
S'Comability'
p276
sg5
I6
sg13
S'$6M'
p277
sg15
I00
sg16
Nsg8
I66
sg17
S'public_relations'
p278
sg2
I6
sg19
I00
sg20
I2003
sg9
S'Chairman'
p279
sa(dp280
g3
S'NextNine'
p281
sg5
I15
sg13
S'$15M'
p282
sg15
I00
sg16
Nsg8
I67
sg17
S'software'
p283
sg2
I7
sg19
I00
sg20
I1998
sg9
S'VP Business Development'
p284
sa(dp285
g2
I8
sg3
S'Malka Rand'
p286
sg5
I53
sg8
I68
sg9
S'Vice President'
p287
sa(dp288
g3
S'Gal Inbar'
p289
sg5
I30
sg13
S'$0'
p290
sg15
I00
sg16
Nsg8
I69
sg17
Nsg2
I9
sg19
I00
sg20
Nsg9
S'Founder & CEO'
p291
sa(dp292
g2
I10
sg3
S'DOD'
p293
sg5
I100
sg8
I70
sg9
S'Head of R&D & software development branch'
p294
sa(dp295
g2
I11
sg3
S'Ness technologies (then Advanced Technologies LTD)'
p296
sg5
I26
sg8
I71
sg9
S'Software engineer'
p297
sa(dp298
g2
I12
sg3
S'Michlol student services Ltd'
p299
sg5
I12
sg8
I72
sg9
S'Chairman of the board'
p300
sa(dp301
g2
I13
sg3
S'Idan, educational systems'
p302
sg5
I12
sg8
I73
sg9
S'Programmer'
p303
sa(dp304
g2
I14
sg3
S'People & Computers'
p305
sg5
I12
sg8
I74
sg9
S'Software journalist'
p306
sa(dp307
g2
I1
sg3
S'Derek Lin'
p308
sg5
I48
sg8
I75
sg9
S'Director of Research and Innovation, CTO RSA Israel'
p309
sa(dp310
g2
I2
sg3
S'Tel Aviv University.'
p311
sg5
I73
sg8
I76
sg9
S'Adjunct Lecturer, MBA program, Recanati business school.'
p312
sa(dp313
g2
I3
sg3
S'CentricalView'
p314
sg5
I18
sg8
I77
sg9
S'Co-founder'
p315
sa(dp316
g2
I4
sg3
S'Zoom Information Inc.'
p317
sg5
I23
sg8
I78
sg9
S'Senior research scientist and algorithm engineer'
p318
sa(dp319
g2
I5
sg3
S'selfemployed'
p320
sg5
I48
sg8
I79
sg9
S'Bioinofromatics, Data Mining and Machine Learning Consultant'
p321
sa(dp322
g2
I6
sg3
S'Wharton - Recanati (GCP) International Marketing'
p323
sg5
I12
sg8
I80
sg9
S'TA'
p324
sa(dp325
g2
I7
sg3
S'Jaime Golombek'
p326
sg5
I52
sg8
I81
sg9
S'Team Leader & S/W Engineer'
p327
sa(dp328
g3
S'eToro'
p329
sg5
I36
sg13
S'$33.9M'
p330
sg15
I00
sg16
Nsg8
I82
sg17
S'finance'
p331
sg2
I1
sg19
I00
sg20
I2007
sg9
S'Head of Strategic Marketing'
p332
sa(dp333
g3
S'ilan ravid'
p334
sg5
I22
sg13
S'$0'
p335
sg15
I00
sg16
Nsg8
I83
sg17
S'software'
p336
sg2
I2
sg19
I00
sg20
I1984
sg9
S'Sr. Director Online & Corporate Brand Marketing'
p337
sa(dp338
g2
I3
sg3
S'Arie Vered'
p339
sg5
I15
sg8
I84
sg9
S'VP Marketing'
p340
sa(dp341
g3
S'Comverse'
p342
sg5
I16
sg13
S'$0'
p343
sg15
I00
sg16
Nsg8
I85
sg17
S'software'
p344
sg2
I4
sg19
I00
sg20
I1984
sg9
S'Director of Product Marketing'
p345
sa(dp346
g3
S'Comverse'
p347
sg5
I20
sg13
S'$0'
p348
sg15
I00
sg16
Nsg8
I86
sg17
S'software'
p349
sg2
I5
sg19
I00
sg20
I1984
sg9
S'Business Manager'
p350
sa(dp351
g2
I6
sg3
S'Valor Ltd.'
p352
sg5
I37
sg8
I87
sg9
S'Corproate Marketing Manager and Investor Relations Officer'
p353
sa(dp354
g2
I7
sg3
S'Trademine Inc.'
p355
sg5
I22
sg8
I88
sg9
S'VP Marketing & Business Development'
p356
sa(dp357
g2
I8
sg3
S'OTC Overseas Travel & Charter'
p358
sg5
I132
sg8
I89
sg9
S'Director Sales & Marketing'
p359
sa(dp360
g17
S'search'
p361
sg2
I1
sg135
Nsg136
I2004
sg16
I28000
sg3
S'Google'
p362
sg5
I45
sg8
I90
sg13
S'$25.1M'
p363
sg15
I01
sg19
I00
sg20
I1998
sg9
S'Software Engineer'
p364
sa(dp365
g17
S'search'
p366
sg2
I2
sg135
Nsg136
I2004
sg16
I28000
sg3
S'Google'
p367
sg5
I22
sg8
I91
sg13
S'$25.1M'
p368
sg15
I01
sg19
I00
sg20
I1998
sg9
S'Software Engineering Intern'
p369
sa(dp370
g2
I3
sg3
S'Intel Corp'
p371
sg5
I12
sg8
I92
sg9
S'Microprocessor Architecture Intern'
p372
sa(dp373
g3
S'Cellglide'
p374
sg5
I12
sg13
S'$0'
p375
sg15
I00
sg16
Nsg8
I93
sg17
Nsg2
I4
sg19
I00
sg20
Nsg9
S'Software Engineer'
p376
sa(dp377
g3
S'BestMatch'
p378
sg5
I16
sg13
S'$0'
p379
sg15
I00
sg16
I4
sg8
I94
sg17
S'ecommerce'
p380
sg2
I1
sg19
I00
sg20
I2012
sg6
S'Israel'
p381
sg9
S'Co-Founder, CTO'
p382
sa(dp383
g3
S'Conduit'
p384
sg5
I21
sg13
S'$110M'
p385
sg15
I00
sg16
I215
sg8
I95
sg17
S'advertising'
p386
sg2
I2
sg19
I00
sg20
I2005
sg9
S'R&D Team Leader'
p387
sa(dp388
g2
I3
sg3
S'Meishar Immediate Community'
p389
sg5
I12
sg8
I96
sg9
S'Software Architect'
p390
sa(dp391
g3
S'Nogacom'
p392
sg5
I19
sg13
S'$0'
p393
sg15
I00
sg16
I25
sg8
I97
sg17
S'enterprise'
p394
sg2
I4
sg19
I00
sg20
I2006
sg9
S'Senior Software Developer'
p395
sa(dp396
g17
S'hardware'
p397
sg2
I5
sg135
Nsg136
I1978
sg16
I86300
sg3
S'Intel'
p398
sg5
I29
sg8
I98
sg13
S'$0'
p399
sg15
I01
sg19
I00
sg20
I1968
sg9
S'Software Developer'
p400
sa(dp401
g2
I1
sg3
S'Intel - Mobile Processors'
p402
sg5
I0
sg8
I99
sg9
S'Senior Architect'
p403
sa(dp404
g17
S'hardware'
p405
sg2
I2
sg135
Nsg136
I1978
sg16
I86300
sg3
S'Intel'
p406
sg5
I156
sg8
I100
sg13
S'$0'
p407
sg15
I01
sg19
I00
sg20
I1968
sg9
S'Principal Engineer - processor architecture'
p408
sa(dp409
g2
I3
sg3
S'National Semiconductor'
p410
sg5
I36
sg8
I101
sg9
S'CPU architect'
p411
sa(dp412
g2
I4
sg3
S'Motorola Semiconductor'
p413
sg5
I84
sg8
I102
sg9
S'Senior Design Engineer, Data-Communication Products Group,'
p414
sa(dp415
g17
S'search'
p416
sg2
I1
sg135
Nsg136
I2004
sg16
I28000
sg3
S'Google'
p417
sg5
I28
sg8
I103
sg13
S'$25.1M'
p418
sg15
I01
sg19
I00
sg20
I1998
sg9
S'Software Engineer'
p419
sa(dp420
g2
I2
sg3
S'Adam Cohen'
p421
sg5
I49
sg8
I104
sg9
S'Distinguished Engineer, Algorithms team leader'
p422
sa(dp423
g2
I3
sg3
S'Big Band Networks'
p424
sg5
I14
sg8
I105
sg9
S'Algorithms Engineer'
p425
sa(dp426
g2
I4
sg3
S'IBM Haifa Research Lab'
p427
sg5
I27
sg8
I106
sg9
S'Research Staff Member'
p428
sa(dp429
g3
S'IDF'
p430
sg5
I24
sg13
S'$0'
p431
sg15
I00
sg16
Nsg8
I107
sg17
Nsg2
I5
sg19
I00
sg20
Nsg9
S'Team leader'
p432
sa(dp433
g2
I1
sg3
S'salesforce.com'
p434
sg5
I14
sg8
I108
sg9
S'Chief Data Scientist, Data.com'
p435
sa(dp436
g2
I2
sg3
S'BlueTail (Acquired by Salesforce.com)'
p437
sg5
I7
sg8
I109
sg9
S'Co-Founder, CTO'
p438
sa(dp439
g2
I3
sg3
S'BlueTail (Acquired by Salesforce.com)'
p440
sg5
I31
sg8
I110
sg9
S'Co-Founder, CEO'
p441
sa(dp442
g2
I4
sg3
S'Check Point Software Technologies'
p443
sg5
I9
sg8
I111
sg9
S'Senior Data-Mining Consultant'
p444
sa(dp445
g2
I5
sg3
S'Tehila'
p446
sg5
I11
sg8
I112
sg9
S'Senior Data-Mining Consultant'
p447
sa(dp448
g2
I6
sg3
S'NuConomy (Acquired by LivePerson)'
p449
sg5
I15
sg8
I113
sg9
S'Senior Data-Mining Consultant'
p450
sa(dp451
g2
I7
sg3
S'Israel Defense Forces, Intelligence Corps'
p452
sg5
I60
sg8
I114
sg9
S'Software Team Leader'
p453
sa(dp454
g2
I8
sg3
S'SentryCom'
p455
sg5
I48
sg8
I115
sg9
S'Founder'
p456
sa(dp457
g17
S'software'
p458
sg2
I1
sg135
Nsg136
I1978
sg16
I388000
sg3
S'IBM'
p459
sg5
I108
sg8
I116
sg13
S'$0'
p460
sg6
S'Israel'
p461
sg15
I01
sg19
I00
sg20
I1896
sg9
S'Sales manager'
p462
sa(dp463
g17
S'software'
p464
sg2
I2
sg135
Nsg136
I1986
sg16
I90000
sg3
S'Microsoft'
p465
sg5
I96
sg8
I117
sg13
S'$0'
p466
sg15
I01
sg19
I00
sg20
I1974
sg9
S'Sales manager'
p467
sa(dp468
g3
S'WallStream'
p469
sg5
I5
sg13
S'$0'
p470
sg15
I00
sg16
Nsg8
I118
sg17
Nsg2
I1
sg19
I00
sg20
Nsg9
S'Chairman'
p471
sa(dp472
g2
I2
sg3
S'Promotheus'
p473
sg5
I7
sg8
I119
sg9
S'Board Member'
p474
sa(dp475
g3
S'Pontis'
p476
sg5
I114
sg13
S'$34.7M'
p477
sg15
I00
sg16
I105
sg8
I120
sg17
S'software'
p478
sg2
I3
sg19
I00
sg20
I2004
sg9
S'EVP Corporate Marketing & Marketing Services'
p479
sa(dp480
g2
I4
sg3
S'Etz veetza'
p481
sg5
I34
sg8
I121
sg9
S'Board Member'
p482
sa(dp483
g3
S'Netafim'
p484
sg5
I48
sg13
S'$0'
p485
sg15
I00
sg16
Nsg8
I122
sg17
Nsg2
I5
sg19
I00
sg20
Nsg9
S'Board of Directors - head of strategy Committee'
p486
sa(dp487
g2
I6
sg3
S'Exigen Group'
p488
sg5
I23
sg6
S'San Francisco Bay Area'
p489
sg8
I123
sg9
S'VP Startegic assessment group'
p490
sa(dp491
g2
I7
sg3
S'Gate42'
p492
sg5
I16
sg6
S'New York'
p493
sg8
I124
sg9
S'CEO'
p494
sa(dp495
g2
I8
sg3
S'SCI International'
p496
sg5
I18
sg6
S'Santa Clara CA'
p497
sg8
I125
sg9
S'CEO'
p498
sa(dp499
g2
I9
sg3
S'POC'
p500
sg5
I96
sg8
I126
sg9
S'Co-CEO and partner'
p501
sa(dp502
g2
I1
sg3
S'Manfrotto Bags'
p503
sg5
I20
sg8
I127
sg9
S'Chief Innovation Officer'
p504
sa(dp505
g2
I2
sg3
S'Manfrotto Bags'
p506
sg5
I44
sg8
I128
sg9
S'Head of R&D'
p507
sa(dp508
g2
I3
sg3
S'Manfrotto Bags'
p509
sg5
I66
sg8
I129
sg9
S'Chief Designer'
p510
sa(dp511
g2
I4
sg3
S'KATA'
p512
sg5
I24
sg8
I130
sg9
S'Head of R&D'
p513
sa(dp514
g2
I5
sg3
S'KATA'
p515
sg5
I36
sg8
I131
sg9
S'Chief Designer'
p516
sa(dp517
g2
I6
sg3
S'KATA'
p518
sg5
I36
sg8
I132
sg9
S'Designer'
p519
sa(dp520
g2
I1
sg3
S'Nova Measuring Instruments'
p521
sg5
I30
sg8
I133
sg9
S'Programmer'
p522
sa(dp523
g2
I2
sg3
S'Technion - Israel Institute of Technology'
p524
sg5
I0
sg8
I134
sg9
S'Student'
p525
sa(dp526
g2
I3
sg3
S'Tel Aviv University'
p527
sg5
I24
sg8
I135
sg9
S'Laboratory instructor'
p528
sa(dp529
g2
I4
sg3
S'Tel Aviv University'
p530
sg5
I12
sg8
I136
sg9
S'Research assistant'
p531
sa(dp532
g2
I1
sg3
S'HP Software & Services'
p533
sg5
I60
sg8
I137
sg9
S'Director BSA Global Practices'
p534
sa(dp535
g17
S'web'
p536
sg2
I2
sg135
Nsg136
I1978
sg16
Nsg3
S'Hewlett-Packard'
p537
sg5
I72
sg8
I138
sg13
S'$0'
p538
sg15
I01
sg19
I00
sg20
I1939
sg9
S'Director BSA Global Practices'
p539
sa(dp540
g2
I3
sg3
S'Opsware, Inc.'
p541
sg5
I24
sg8
I139
sg9
S'Director Global Services Operations'
p542
sa(dp543
g2
I4
sg3
S'Dave Gilmore'
p544
sg5
I60
sg8
I140
sg9
S'Director Professional Services and Systems Engineering'
p545
sa(dp546
g2
I5
sg3
S'TIBCO Inc.'
p547
sg5
I96
sg8
I141
sg9
S'Senior Manger Business Development and Client Services'
p548
sa(dp549
g2
I1
sg3
S'.as2 e-consulting'
p550
sg5
I159
sg8
I142
sg9
S'Owner'
p551
sa(dp552
g2
I2
sg3
S'Hewlett Packard'
p553
sg5
I61
sg8
I143
sg9
S'Product Manager'
p554
sa(dp555
g3
S'IDF'
p556
sg5
I23
sg13
S'$0'
p557
sg15
I00
sg16
Nsg8
I144
sg17
Nsg2
I1
sg19
I00
sg20
Nsg9
S'Head of Operations Section'
p558
sa(dp559
g3
S'IDF'
p560
sg5
I19
sg13
S'$0'
p561
sg15
I00
sg16
Nsg8
I145
sg17
Nsg2
I2
sg19
I00
sg20
Nsg9
S'Head of Analysts Team'
p562
sa(dp563
g2
I3
sg3
S'Israel Defense Forces'
p564
sg5
I19
sg8
I146
sg9
S'Head of IT Team'
p565
sa(dp566
g3
S'IDF'
p567
sg5
I13
sg13
S'$0'
p568
sg15
I00
sg16
Nsg8
I147
sg17
Nsg2
I4
sg19
I00
sg20
Nsg9
S'Software Engineer'
p569
sa(dp570
g3
S'IDF'
p571
sg5
I24
sg13
S'$0'
p572
sg15
I00
sg16
Nsg8
I148
sg17
Nsg2
I1
sg19
I00
sg20
Nsg6
S'Ness Technologies'
p573
sg9
S'Product Manager'
p574
sa(dp575
g3
S'IDF'
p576
sg5
I24
sg13
S'$0'
p577
sg15
I00
sg16
Nsg8
I149
sg17
Nsg2
I2
sg19
I00
sg20
Nsg6
S'IDF'
p578
sg9
S'Dev. Team Leader'
p579
sa(dp580
g3
S'IDF'
p581
sg5
I48
sg13
S'$0'
p582
sg15
I00
sg16
Nsg8
I150
sg17
Nsg2
I3
sg19
I00
sg20
Nsg6
S'IDF & Ness Technologies'
p583
sg9
S'Software Programmer'
p584
sa(dp585
g3
S'Zerto'
p586
sg5
I18
sg13
S'$34.2M'
p587
sg15
I00
sg16
I50
sg8
I151
sg17
S'enterprise'
p588
sg2
I1
sg19
I00
sg20
I2009
sg9
S'Software Team Leader'
p589
sa(dp590
g3
S'ZeRTO'
p591
sg5
I35
sg13
S'$34.2M'
p592
sg15
I00
sg16
I50
sg8
I152
sg17
S'enterprise'
p593
sg2
I2
sg19
I00
sg20
I2009
sg9
S'Software Engineer'
p594
sa(dp595
g17
S'software'
p596
sg2
I3
sg135
Nsg136
I1978
sg16
I388000
sg3
S'IBM'
p597
sg5
I11
sg8
I153
sg13
S'$0'
p598
sg6
S'Israel'
p599
sg15
I01
sg19
I00
sg20
I1896
sg9
S'Software Engineer'
p600
sa(dp601
g17
S'public_relations'
p602
sg2
I4
sg19
I01
sg3
S'Radvision'
p603
sg5
I20
sg8
I154
sg13
S'$0'
p604
sg15
I00
sg16
Nsg20
I1992
sg65
Nsg9
S'Software Engineer'
p605
sa(dp606
g3
S'IDF'
p607
sg5
I12
sg13
S'$0'
p608
sg15
I00
sg16
Nsg8
I155
sg17
Nsg2
I5
sg19
I00
sg20
Nsg9
S'Head of Software Development Training Division at IDF'
p609
sa(dp610
g3
S'IDF'
p611
sg5
I17
sg13
S'$0'
p612
sg15
I00
sg16
Nsg8
I156
sg17
Nsg2
I6
sg19
I00
sg20
Nsg9
S'Instructor in a Computer Training course'
p613
sa(dp614
g3
S'IDF'
p615
sg5
I37
sg13
S'$0'
p616
sg15
I00
sg16
Nsg8
I157
sg17
Nsg2
I7
sg19
I00
sg20
Nsg9
S'Programmer at IDF'
p617
sa(dp618
g2
I1
sg3
S'salesforce.com'
p619
sg5
I14
sg6
S'Israel'
p620
sg8
I158
sg9
S'Software Engineering - Data Mining, Data.com'
p621
sa(dp622
g2
I2
sg3
S'BlueTail (Acquired by Salesforce.com)'
p623
sg5
I8
sg6
S'Israel'
p624
sg8
I159
sg9
S'BigData Hacker'
p625
sa(dp626
g2
I3
sg3
S'Israel Defence Forces'
p627
sg5
I14
sg8
I160
sg9
S'Team Leader'
p628
sa(dp629
g2
I4
sg3
S'Vitaly Gordon'
p630
sg5
I12
sg8
I161
sg9
S'Developer'
p631
sa(dp632
g2
I5
sg3
S'Israel Defense Forces'
p633
sg5
I39
sg8
I162
sg9
S'DBA'
p634
sa(dp635
g3
S'Superfish'
p636
sg5
I26
sg13
S'$19.3M'
p637
sg15
I00
sg16
I50
sg8
I163
sg17
S'search'
p638
sg2
I1
sg19
I00
sg20
I2006
sg9
S'VP R&D'
p639
sa(dp640
g3
S'Superfish'
p641
sg5
I34
sg13
S'$19.3M'
p642
sg15
I00
sg16
I50
sg8
I164
sg17
S'search'
p643
sg2
I2
sg19
I00
sg20
I2006
sg9
S'Director of SW development'
p644
sa(dp645
g17
S'hardware'
p646
sg2
I3
sg135
Nsg136
I1978
sg16
I86300
sg3
S'Intel'
p647
sg5
I72
sg8
I165
sg13
S'$0'
p648
sg15
I01
sg19
I00
sg20
I1968
sg9
S'SW engineer'
p649
sa(dp650
g2
I1
sg3
S'GoldenFeeds'
p651
sg5
I36
sg8
I166
sg9
S'CEO'
p652
sa(dp653
g2
I2
sg3
S'ForNova'
p654
sg5
I54
sg8
I167
sg9
S'CEO'
p655
sa(dp656
g2
I3
sg3
S'UnVC'
p657
sg5
I24
sg8
I168
sg9
S'Entrepreneur, Co-Founder'
p658
sa(dp659
g3
S'Wisair'
p660
sg5
I52
sg13
S'$55.8M'
p661
sg15
I00
sg16
Nsg8
I169
sg17
S'semiconductor'
p662
sg2
I4
sg19
I00
sg20
I2001
sg9
S'VP  Marketing & Business Develpment'
p663
sa(dp664
g2
I5
sg3
S'Floware Wireless Systems'
p665
sg5
I64
sg8
I170
sg9
S'Co-Founder, VP R&D'
p666
sa(dp667
g3
S'CTP'
p668
sg5
I12
sg13
S'$0'
p669
sg15
I00
sg16
Nsg8
I171
sg17
Nsg2
I6
sg19
I00
sg20
Nsg9
S'Project Manager'
p670
sa(dp671
g2
I7
sg3
S'Teledata'
p672
sg5
I49
sg8
I172
sg9
S'Software manager'
p673
sa(dp674
g2
I8
sg3
S'IDF / IAF'
p675
sg5
I84
sg8
I173
sg9
S'Officer'
p676
sa(dp677
g3
S'IAF'
p678
sg5
I27
sg13
S'$0'
p679
sg15
I00
sg16
Nsg8
I174
sg17
Nsg2
I9
sg19
I00
sg20
Nsg6
S'Norwalk CT, USA'
p680
sg9
S'MMRS, Norden'
p681
sa(dp682
g2
I1
sg3
S'The Public Knowledge Workshop'
p683
sg5
I24
sg8
I175
sg9
S'Volunteer'
p684
sa(dp685
g2
I2
sg3
S'Speedometry'
p686
sg5
I106
sg8
I176
sg9
S'CEO'
p687
sa(dp688
g3
S'Pursway'
p689
sg5
I12
sg13
S'$13.2M'
p690
sg15
I00
sg16
Nsg8
I177
sg17
S'analytics'
p691
sg2
I3
sg19
I00
sg20
I2005
sg9
S'Consultant'
p692
sa(dp693
g3
S'Kaltura'
p694
sg5
I5
sg13
S'$69.1M'
p695
sg15
I00
sg16
I160
sg8
I178
sg17
S'software'
p696
sg2
I4
sg19
I00
sg20
I2006
sg9
S'Technology Specialist'
p697
sa(dp698
g17
S'software'
p699
sg2
I5
sg135
Nsg136
Nsg16
Nsg3
S'LivePerson'
p700
sg5
I20
sg8
I179
sg13
S'$2.3M'
p701
sg15
I01
sg19
I00
sg20
I1995
sg9
S'Consultant'
p702
sa(dp703
g2
I6
sg3
S'Praxell'
p704
sg5
I39
sg8
I180
sg9
S'Consultant'
p705
sa(dp706
g2
I7
sg3
S'Streambase'
p707
sg5
I0
sg8
I181
sg9
S'Representative'
p708
sa(dp709
g2
I8
sg3
S'Gilon'
p710
sg5
I0
sg8
I182
sg9
S'Consultant'
p711
sa(dp712
g3
S'IDF'
p713
sg5
I49
sg13
S'$0'
p714
sg15
I00
sg16
Nsg8
I183
sg17
Nsg2
I9
sg19
I00
sg20
Nsg9
S'Programmer'
p715
sa(dp716
g2
I1
sg3
S'NICE Actimize'
p717
sg5
I41
sg8
I184
sg9
S'CEO'
p718
sa(dp719
g3
S'BillGuard'
p720
sg5
I38
sg13
S'$13M'
p721
sg15
I00
sg16
I12
sg8
I185
sg17
S'security'
p722
sg2
I2
sg19
I00
sg20
I2010
sg9
S'Board Member'
p723
sa(dp724
g2
I3
sg3
S'ACFCS - The Association of Certified Financial Crime Specialists'
p725
sg5
I12
sg8
I186
sg9
S'Advisory Board'
p726
sa(dp727
g2
I4
sg3
S'Actimize (Acquired by NICE Systems)'
p728
sg5
I37
sg8
I187
sg9
S'EVP Product & CMO'
p729
sa(dp730
g2
I5
sg3
S'RSA Security'
p731
sg5
I13
sg8
I188
sg9
S'VP Marketing'
p732
sa(dp733
g2
I6
sg3
S'Cyota (Acquired by RSA Security)'
p734
sg5
I49
sg8
I189
sg9
S'Co-founder, EVP Marketing'
p735
sa(dp736
g2
I7
sg3
S'Cyota (Acquired by RSA Security)'
p737
sg5
I25
sg8
I190
sg9
S'Co-founder, VP Professional Services'
p738
sa(dp739
g3
S'IDF'
p740
sg5
I72
sg13
S'$0'
p741
sg15
I00
sg16
Nsg8
I191
sg17
Nsg2
I8
sg19
I00
sg20
Nsg9
S'Head of Products Branch'
p742
sa(dp743
g2
I1
sg3
S'Ben Gurion University'
p744
sg5
I213
sg8
I192
sg9
S'Press Officer & Spokesperson'
p745
sa(dp746
g2
I2
sg3
S'southern region'
p747
sg5
I85
sg8
I193
sg9
S'Head of rescue division'
p748
sa(dp749
g17
S'search'
p750
sg2
I1
sg135
Nsg136
I2004
sg16
I28000
sg3
S'Emmanuel Witzthum'
p751
sg5
I27
sg8
I194
sg13
S'$25.1M'
p752
sg15
I01
sg19
I00
sg20
I1998
sg9
S'Developer Relations Program Manager'
p753
sa(dp754
g17
S'software'
p755
sg2
I2
sg135
Nsg136
I1986
sg16
I90000
sg3
S'Microsoft'
p756
sg5
I11
sg8
I195
sg13
S'$0'
p757
sg15
I01
sg19
I00
sg20
I1974
sg9
S'Windows Azure SSP'
p758
sa(dp759
g2
I3
sg3
S'Adrian Kearns'
p760
sg5
I21
sg8
I196
sg9
S'Senior architect and consultant'
p761
sa(dp762
g17
S'software'
p763
sg2
I4
sg135
Nsg136
I1986
sg16
I90000
sg3
S'Michal Gonen'
p764
sg5
I39
sg8
I197
sg13
S'$0'
p765
sg15
I01
sg19
I00
sg20
I1974
sg9
S'Software Architecture Advisor'
p766
sa(dp767
g2
I5
sg3
S'Spacebug'
p768
sg5
I120
sg8
I198
sg9
S'Maintainer'
p769
sa(dp770
g2
I6
sg3
S'Yuval Lubowich'
p771
sg5
I12
sg8
I199
sg9
S'Founder'
p772
sa(dp773
g3
S'Coridan'
p774
sg5
I13
sg13
S'$0'
p775
sg15
I00
sg16
Nsg8
I200
sg17
Nsg2
I7
sg19
I00
sg20
Nsg9
S'Core architect'
p776
sa(dp777
g3
S'Coridan'
p778
sg5
I21
sg13
S'$0'
p779
sg15
I00
sg16
Nsg8
I201
sg17
Nsg2
I8
sg19
I00
sg20
Nsg9
S'Team leader'
p780
sa(dp781
g3
S'Comverse'
p782
sg5
I15
sg13
S'$0'
p783
sg15
I00
sg16
Nsg8
I202
sg17
S'software'
p784
sg2
I9
sg19
I00
sg20
I1984
sg9
S'Team leader'
p785
sa(dp786
g3
S'Comverse'
p787
sg5
I26
sg13
S'$0'
p788
sg15
I00
sg16
Nsg8
I203
sg17
S'software'
p789
sg2
I10
sg19
I00
sg20
I1984
sg9
S'Software developer'
p790
sa(dp791
g2
I11
sg3
S'Nitsan Wakart'
p792
sg5
I17
sg8
I204
sg9
S'Software developer'
p793
sa(dp794
g17
S'transportation'
p795
sg2
I1
sg19
I01
sg3
S'waze'
p796
sg5
I64
sg8
I205
sg13
S'$67M'
p797
sg15
I00
sg16
I110
sg20
I2007
sg65
F1100000000.0
sg9
S'Founder and VP R&D'
p798
sa(dp799
g2
I2
sg3
S'xlnet ltd'
p800
sg5
I60
sg8
I206
sg9
S'CEO'
p801
sa(dp802
g17
S'software'
p803
sg2
I3
sg135
Nsg136
Nsg16
Nsg3
S'Verint'
p804
sg5
I48
sg8
I207
sg13
S'$0'
p805
sg15
I01
sg19
I00
sg20
I1994
sg9
S'Infrastructure team leader'
p806
sa(dp807
g2
I4
sg3
S'University of Minnesota - Twin Cities'
p808
sg5
I72
sg8
I208
sg9
S'Student'
p809
sa(dp810
g17
S'software'
p811
sg2
I1
sg19
I01
sg3
S'Soluto'
p812
sg5
I10
sg8
I209
sg13
S'$18M'
p813
sg6
S'Tel Aviv, Israel'
p814
sg15
I00
sg16
I50
sg20
I2008
sg65
F130000000.0
sg9
S'Software Engineer'
p815
sa(dp816
g2
I2
sg3
S'Giftolo'
p817
sg5
I11
sg8
I210
sg9
S'Co-Founder & Architect'
p818
sa(dp819
g2
I3
sg3
S'EXAI Ltd.'
p820
sg5
I7
sg6
S'Tel Aviv, Israel'
p821
sg8
I211
sg9
S'Senior Software Engineer'
p822
sa(dp823
g3
S'IDF'
p824
sg5
I9
sg13
S'$0'
p825
sg15
I00
sg16
Nsg8
I212
sg17
Nsg2
I4
sg19
I00
sg20
Nsg9
S'Senior Software Engineer'
p826
sa(dp827
g3
S'IDF'
p828
sg5
I35
sg13
S'$0'
p829
sg15
I00
sg16
Nsg8
I213
sg17
Nsg2
I5
sg19
I00
sg20
Nsg9
S'Senior Software Engineer'
p830
sa(dp831
g3
S'IDF'
p832
sg5
I30
sg13
S'$0'
p833
sg15
I00
sg16
Nsg8
I214
sg17
Nsg2
I6
sg19
I00
sg20
Nsg9
S'Software Engineer'
p834
sa(dp835
g3
S'SiSense'
p836
sg5
I15
sg13
S'$10M'
p837
sg15
I00
sg16
I50
sg8
I215
sg17
S'analytics'
p838
sg2
I1
sg19
I00
sg20
I2010
sg6
S'Redwood City, CA'
p839
sg9
S'CEO'
p840
sa(dp841
g3
S'Uzi Krieger'
p842
sg5
I58
sg13
S'$39M'
p843
sg15
I00
sg16
Nsg8
I216
sg17
S'software'
p844
sg2
I2
sg19
I00
sg20
I2006
sg9
S'Chief Marketing Officer'
p845
sa(dp846
g2
I3
sg3
S'Mike Agron'
p847
sg5
I29
sg8
I217
sg9
S'Founder & CEO'
p848
sa(dp849
g2
I4
sg3
S'Adam Zais'
p850
sg5
I155
sg8
I218
sg9
S'Senior VP Global Marketing'
p851
sa(dp852
g3
S'Kidum'
p853
sg5
I24
sg13
S'$0'
p854
sg15
I00
sg16
Nsg8
I219
sg17
Nsg2
I5
sg19
I00
sg20
Nsg6
S'Tel Aviv'
p855
sg9
S'Inside Sales & Trainer'
p856
sa(dp857
g2
I6
sg3
S'Halilit'
p858
sg5
I36
sg8
I220
sg9
S'Sales Manager, Professional Audio'
p859
sa(dp860
g17
S'search'
p861
sg2
I1
sg135
Nsg136
I2004
sg16
I28000
sg3
S'Google'
p862
sg5
I12
sg8
I221
sg13
S'$25.1M'
p863
sg15
I01
sg19
I00
sg20
I1998
sg9
S'Product Manager'
p864
sa(dp865
g17
S'search'
p866
sg2
I2
sg135
Nsg136
I2004
sg16
I28000
sg3
S'Google'
p867
sg5
I24
sg8
I222
sg13
S'$25.1M'
p868
sg15
I01
sg19
I00
sg20
I1998
sg9
S'Partner Technology Manager'
p869
sa(dp870
g17
S'search'
p871
sg2
I3
sg135
Nsg136
I2004
sg16
I28000
sg3
S'Google'
p872
sg5
I24
sg8
I223
sg13
S'$25.1M'
p873
sg15
I01
sg19
I00
sg20
I1998
sg9
S'Manager,  Technical Account Management'
p874
sa(dp875
g17
S'search'
p876
sg2
I4
sg135
Nsg136
I2004
sg16
I28000
sg3
S'Google'
p877
sg5
I12
sg8
I224
sg13
S'$25.1M'
p878
sg15
I01
sg19
I00
sg20
I1998
sg9
S'TAM Lead'
p879
sa(dp880
g17
S'search'
p881
sg2
I5
sg135
Nsg136
I2004
sg16
I28000
sg3
S'Google'
p882
sg5
I12
sg8
I225
sg13
S'$25.1M'
p883
sg15
I01
sg19
I00
sg20
I1998
sg9
S'Technical Account Manager'
p884
sa(dp885
g2
I6
sg3
S'Noosh, Inc'
p886
sg5
I48
sg8
I226
sg9
S'Integration Manager'
p887
sa(dp888
g2
I7
sg3
S'digiGroup'
p889
sg5
I24
sg8
I227
sg9
S'Architect and Engineering lead'
p890
sa(dp891
g2
I8
sg3
S'NetDynamics (Sun)'
p892
sg5
I24
sg8
I228
sg9
S'Consultant'
p893
sa(dp894
g2
I9
sg3
S'IBM, Haifa Research Lab'
p895
sg5
I36
sg8
I229
sg9
S'Software Engineer (Intern)'
p896
sa(dp897
g2
I1
sg3
S'Intel Corporation'
p898
sg5
I18
sg8
I230
sg9
S'Firmware Developer'
p899
sa(dp900
g2
I2
sg3
S'Freelancer / Contractor'
p901
sg5
I58
sg8
I231
sg9
S'Independent software developer and entrepreneur'
p902
sa(dp903
g2
I3
sg3
S'FocalPursuit ltd.'
p904
sg5
I24
sg8
I232
sg9
S'Director of Software Development'
p905
sa(dp906
g2
I4
sg3
S'Anat Pinhas'
p907
sg5
I5
sg8
I233
sg9
S'Senior Software Developer'
p908
sa(dp909
g2
I5
sg3
S'Rinat Greenblat'
p910
sg5
I15
sg8
I234
sg9
S'Senior Programmer'
p911
sa(dp912
g2
I6
sg3
S'Yoram Bar-Haim'
p913
sg5
I15
sg8
I235
sg9
S'Team Leader'
p914
sa(dp915
g2
I7
sg3
S'BluePhoenix Solutions'
p916
sg5
I11
sg8
I236
sg9
V\u200eTechnology Architect
p917
sa(dp918
g2
I8
sg3
S'Gil Shalit'
p919
sg5
I29
sg8
I237
sg9
S'Team Leader'
p920
sa(dp921
g2
I9
sg3
S'BluePhoenix Solutions'
p922
sg5
I22
sg8
I238
sg9
S'Senior Programmer'
p923
sa(dp924
g2
I10
sg3
S'Sheer Networks'
p925
sg5
I0
sg8
I239
sg9
S'Java Expert'
p926
sa(dp927
g2
I11
sg3
S'E4X'
p928
sg5
I12
sg8
I240
sg9
S'Web Developer'
p929
sa(dp930
g2
I12
sg3
S'Intercomp'
p931
sg5
I12
sg8
I241
sg9
S'Compiler Expert'
p932
sa(dp933
g2
I13
sg3
S'Euronet Communications'
p934
sg5
I48
sg8
I242
sg9
S'Network Manager & Programmer'
p935
sa(dp936
g2
I1
sg3
S'vTaggo'
p937
sg5
I13
sg6
S'Tel Aviv, Israel'
p938
sg8
I243
sg9
S'Co-founder, CMO'
p939
sa(dp940
g2
I2
sg3
S'Newzzap Technologies'
p941
sg5
I13
sg6
S'Tel-Aviv, Israel'
p942
sg8
I244
sg9
S'Co-Founder, Board Member'
p943
sa(dp944
g2
I3
sg3
S'Wajamu'
p945
sg5
I25
sg8
I245
sg9
S'Co-founder, Marketing Advisor'
p946
sa(dp947
g2
I4
sg3
S'Self Employed'
p948
sg5
I27
sg8
I246
sg9
S'Entrepreneur and Consultant'
p949
sa(dp950
g3
S'WeFi'
p951
sg5
I53
sg13
S'$10M'
p952
sg15
I00
sg16
Nsg8
I247
sg17
S'mobile'
p953
sg2
I5
sg19
I00
sg20
I2006
sg9
S'Vice President, Products and Marketing'
p954
sa(dp955
g2
I6
sg3
S'SmartShopper.com'
p956
sg5
I24
sg8
I248
sg9
S'General Manager and VP Product Technologies'
p957
sa(dp958
g17
S'enterprise'
p959
sg2
I7
sg135
Nsg136
I2013
sg16
Nsg3
S'Finjan'
p960
sg5
I28
sg8
I249
sg13
S'$32M'
p961
sg15
I01
sg19
I01
sg20
I1996
sg65
Nsg9
S'Vice President R&D'
p962
sa(dp963
g2
I8
sg3
S'SoftWatch'
p964
sg5
I10
sg8
I250
sg9
S'VP R&D and General Manager'
p965
sa(dp966
g2
I9
sg3
S'Enbaya'
p967
sg5
I30
sg8
I251
sg9
S'Co-founder, Executive VP of Products'
p968
sa(dp969
g2
I10
sg3
S'Composit Communications'
p970
sg5
I48
sg8
I252
sg9
S'CTO'
p971
sa(dp972
g2
I11
sg3
S'Israel Defence Forces'
p973
sg5
I73
sg8
I253
sg9
S'Technical Officer'
p974
sa(dp975
g2
I1
sg3
S'El-Mul Technologies'
p976
sg5
I31
sg8
I254
sg9
S'R&D manager'
p977
sa(dp978
g2
I2
sg3
S'HP'
p979
sg5
I37
sg8
I255
sg9
S'Product engineer'
p980
sa(dp981
g3
S'Orbotech'
p982
sg5
I24
sg13
S'$0'
p983
sg15
I00
sg16
Nsg8
I256
sg17
S'manufacturing'
p984
sg2
I3
sg19
I00
sg20
Nsg9
S'System engineer'
p985
sa(dp986
g2
I4
sg3
S'Nova Measuring Instruments'
p987
sg5
I48
sg8
I257
sg9
S'Product manager'
p988
sa(dp989
g2
I5
sg3
S'Nova Measuring Instruments'
p990
sg5
I36
sg8
I258
sg9
S'Application expert'
p991
sa(dp992
g3
S'TraderTools'
p993
sg5
I12
sg13
S'$9.8M'
p994
sg15
I00
sg16
Nsg8
I259
sg17
S'software'
p995
sg2
I1
sg19
I00
sg20
Nsg9
S'Director of Infrastructure'
p996
sa(dp997
g3
S'Gilad Sarfati'
p998
sg5
I162
sg13
S'$9.8M'
p999
sg15
I00
sg16
Nsg8
I260
sg17
S'software'
p1000
sg2
I2
sg19
I00
sg20
Nsg9
S'QA & IT Manager'
p1001
sa(dp1002
g3
S'TraderTools'
p1003
sg5
I65
sg13
S'$9.8M'
p1004
sg15
I00
sg16
Nsg8
I261
sg17
S'software'
p1005
sg2
I3
sg19
I00
sg20
Nsg9
S'Customer Support & Implemetation Manager'
p1006
sa(dp1007
g3
S'Leadspace'
p1008
sg5
I12
sg13
S'$10M'
p1009
sg15
I00
sg16
I30
sg8
I262
sg17
S'enterprise'
p1010
sg2
I1
sg19
I00
sg20
I2007
sg6
S'Israel'
p1011
sg9
S'Founder and VP Products'
p1012
sa(dp1013
g3
S'Leadspace'
p1014
sg5
I58
sg13
S'$10M'
p1015
sg15
I00
sg16
I30
sg8
I263
sg17
S'enterprise'
p1016
sg2
I2
sg19
I00
sg20
I2007
sg9
S'Co-Founder and CEO'
p1017
sa(dp1018
g2
I3
sg3
S'Meidata'
p1019
sg5
I12
sg8
I264
sg9
S'Co-Founder and Senior Consultant'
p1020
sa(dp1021
g2
I4
sg3
S'ECI Telecom'
p1022
sg5
I24
sg8
I265
sg9
S'Strategic Marketing Director'
p1023
sa(dp1024
g2
I5
sg3
S'Bezeq The Israel Telecommunication Corp.'
p1025
sg5
I17
sg8
I266
sg9
S'Business Intelligence Consultant'
p1026
sa(dp1027
g2
I6
sg3
S'K2K'
p1028
sg5
I16
sg8
I267
sg9
S'Knowledge Management Consultant'
p1029
sa(dp1030
g3
S'IDF'
p1031
sg5
I84
sg13
S'$0'
p1032
sg15
I00
sg16
Nsg8
I268
sg17
Nsg2
I7
sg19
I00
sg20
Nsg9
S'Officer'
p1033
sa(dp1034
g2
I1
sg3
S'Mobileye'
p1035
sg5
I172
sg8
I269
sg9
S'Chairman'
p1036
sa(dp1037
g2
I2
sg3
S'Hebrew University'
p1038
sg5
I204
sg8
I270
sg9
S'Professor'
p1039
sa(dp1040
g2
I1
sg3
S'Avaya (Radvision)'
p1041
sg5
I43
sg6
S'Israel'
p1042
sg8
I271
sg9
S'Director, Sales EMEA'
p1043
sa(dp1044
g2
I2
sg3
S'C-True'
p1045
sg5
I12
sg8
I272
sg9
S'VP Sales'
p1046
sa(dp1047
g2
I3
sg3
S'IPgallery'
p1048
sg5
I15
sg8
I273
sg9
S'Associate VP Sales'
p1049
sa(dp1050
g3
S'Personeta'
p1051
sg5
I16
sg13
S'$12M'
p1052
sg15
I00
sg16
Nsg8
I274
sg17
S'software'
p1053
sg2
I4
sg19
I00
sg20
I1999
sg9
S'Associate VP Sales EMEA'
p1054
sa(dp1055
g3
S'Comverse'
p1056
sg5
I17
sg13
S'$0'
p1057
sg15
I00
sg16
Nsg8
I275
sg17
S'software'
p1058
sg2
I5
sg19
I00
sg20
I1984
sg9
S'Sales Director EMEA'
p1059
sa(dp1060
g17
S'mobile'
p1061
sg2
I6
sg135
Nsg136
Nsg16
Nsg3
S'Alvarion'
p1062
sg5
I36
sg8
I276
sg13
S'$0'
p1063
sg15
I01
sg19
I00
sg20
Nsg9
S'Strategic Sales Manager'
p1064
sa(dp1065
g2
I7
sg3
S'Tdsoft'
p1066
sg5
I36
sg8
I277
sg9
S'Sales Director, EMEA (today Vocaltec)'
p1067
sa(dp1068
g2
I8
sg3
S'Frontline PCB'
p1069
sg5
I18
sg8
I278
sg9
S'Sales and Marketing Manager (part of Orbotech)'
p1070
sa(dp1071
g3
S'Orbotech'
p1072
sg5
I96
sg13
S'$0'
p1073
sg15
I00
sg16
Nsg8
I279
sg17
S'manufacturing'
p1074
sg2
I9
sg19
I00
sg20
Nsg9
S'Application Manager (Israel & USA)'
p1075
sa(dp1076
g3
S'Optrotech'
p1077
sg5
I12
sg13
S'$0'
p1078
sg15
I00
sg16
Nsg8
I280
sg17
Nsg2
I10
sg19
I00
sg20
Nsg9
S'Application Manager (Today Orbotech)'
p1079
sa(dp1080
g2
I1
sg3
S'Teva Pharmaceutical Industries Ltd.'
p1081
sg5
I30
sg8
I281
sg9
S'Director, Global HR Solutions'
p1082
sa(dp1083
g2
I2
sg3
S'Teva Pharmaceutical Industries Ltd.'
p1084
sg5
I47
sg8
I282
sg9
S'HRIS Project Manager'
p1085
sa(dp1086
g2
I3
sg3
S'AKT Human Capital Solutions'
p1087
sg5
I60
sg8
I283
sg9
S'Senior Project Manager'
p1088
sa(dp1089
g3
S'Everest'
p1090
sg5
I72
sg13
S'$2.2M'
p1091
sg15
I00
sg16
Nsg8
I284
sg17
S'mobile'
p1092
sg2
I4
sg19
I00
sg20
I2012
sg9
S'Managing Partner'
p1093
sa(dp1094
g2
I1
sg3
S'UCANSI INC.'
p1095
sg5
I6
sg8
I285
sg9
S'Marketing, CRM and What not'
p1096
sa(dp1097
g3
S'SweetIM'
p1098
sg5
I30
sg13
S'$0'
p1099
sg15
I00
sg16
Nsg8
I286
sg17
S'web'
p1100
sg2
I2
sg19
I00
sg20
I2005
sg9
S'Inbound Marketing Director'
p1101
sa(dp1102
g2
I3
sg3
S'iMesh Inc.'
p1103
sg5
I57
sg8
I287
sg9
S'Advertising Director'
p1104
sa(dp1105
g2
I4
sg3
S'Liron Levitzky'
p1106
sg5
I29
sg8
I288
sg9
S'SEM Account Executive'
p1107
sa(dp1108
g3
S'Yami Glick'
p1109
sg5
I29
sg13
S'$0'
p1110
sg15
I00
sg16
Nsg8
I289
sg17
Nsg2
I5
sg19
I00
sg20
Nsg9
S'Project Manager'
p1111
sa(dp1112
g3
S'CheckPoint'
p1113
sg5
I34
sg13
S'$0'
p1114
sg15
I00
sg16
Nsg8
I290
sg17
Nsg2
I6
sg19
I00
sg20
Nsg9
S'SAP Intergration As.'
p1115
sa(dp1116
g2
I1
sg3
S'Ex Libris'
p1117
sg5
I59
sg8
I291
sg9
S'VP of Global Support'
p1118
sa(dp1119
g2
I2
sg3
S'Ex Libris'
p1120
sg5
I14
sg8
I292
sg9
S'Director of Global Support and Implementation'
p1121
sa(dp1122
g2
I3
sg3
S'Exlibris'
p1123
sg5
I0
sg8
I293
sg9
S'Director of Implementation & Support'
p1124
sa(dp1125
g2
I4
sg3
S'Anat Sandalowsky'
p1126
sg5
I72
sg6
S'Raanana'
p1127
sg8
I294
sg9
S'Director of CS & PS'
p1128
sa(dp1129
g17
S'web'
p1130
sg2
I5
sg135
Nsg136
I1998
sg16
Nsg3
S'Amdocs'
p1131
sg5
I144
sg8
I295
sg13
S'$0'
p1132
sg15
I01
sg19
I00
sg20
Nsg9
S'Project Manager'
p1133
sa(dp1134
g2
I1
sg3
S'Toga Networks'
p1135
sg5
I7
sg8
I296
sg9
S'HR Specialist'
p1136
sa(dp1137
g2
I2
sg3
S'Ness Technologies'
p1138
sg5
I19
sg8
I297
sg9
S'HR Recruiter'
p1139
sa(dp1140
g2
I3
sg3
S'Dialog Consulting for Human Resources'
p1141
sg5
I16
sg8
I298
sg9
S'HR Counsellor'
p1142
sa(dp1143
g2
I1
sg3
S'Xenia Venture Capital'
p1144
sg5
I125
sg8
I299
sg9
S'CEO'
p1145
sa(dp1146
g2
I2
sg3
S'Anat Segal Consulting & Technology Invesments'
p1147
sg5
I164
sg8
I300
sg9
S'Owner'
p1148
sa(dp1149
g2
I3
sg3
S'Tamir Fishman'
p1150
sg5
I24
sg8
I301
sg9
S'Managing Director'
p1151
sa(dp1152
g2
I1
sg3
S'Destination Hotels and Resorts'
p1153
sg5
I29
sg8
I302
sg9
S'Senior Vice President of Sales & Marketing'
p1154
sa(dp1155
g2
I2
sg3
S'Destination Hotels and Resorts'
p1156
sg5
I87
sg8
I303
sg9
S'Vice President of Field Sales & Marketing'
p1157
sa(dp1158
g2
I3
sg3
S'Destination Hotels & Resorts'
p1159
sg5
I45
sg8
I304
sg9
S'Regional Director of Sales & Marketing'
p1160
sa(dp1161
g2
I4
sg3
S'Vail Cascade Resort'
p1162
sg5
I56
sg8
I305
sg9
S'Director of Marketing'
p1163
sa(dp1164
g2
I5
sg3
S'Dawson Companies Inc'
p1165
sg5
I67
sg8
I306
sg9
S'Vice President of Sales'
p1166
sa(dp1167
g2
I6
sg3
S'Regal-Aircoa Companies'
p1168
sg5
I24
sg8
I307
sg9
S'Sales Manager'
p1169
sa(dp1170
g3
S'Kaltura'
p1171
sg5
I22
sg13
S'$69.1M'
p1172
sg15
I00
sg16
I160
sg8
I308
sg17
S'software'
p1173
sg2
I1
sg19
I00
sg20
I2006
sg6
S'San Francisco'
p1174
sg9
S'Global Sales Executive of Media and Entertainment'
p1175
sa(dp1176
g3
S'Kaltura'
p1177
sg5
I10
sg13
S'$69.1M'
p1178
sg15
I00
sg16
I160
sg8
I309
sg17
S'software'
p1179
sg2
I2
sg19
I00
sg20
I2006
sg9
S'Sales and Marketing Coordinator'
p1180
sa(dp1181
g2
I3
sg3
S'121 Silicon Valley, Inc.'
p1182
sg5
I7
sg8
I310
sg9
S'Marketing Manager'
p1183
sa(dp1184
g2
I4
sg3
S'Kroenke Sports Enterprises'
p1185
sg5
I45
sg6
S'Greater Denver Area'
p1186
sg8
I311
sg9
S'Denver Nuggets Media Relations Coordinator'
p1187
sa(dp1188
g2
I5
sg3
S'NCAA'
p1189
sg5
I1
sg6
S'Denver, Colorado'
p1190
sg8
I312
sg9
S'March Madness Midwest Conference Media Coordinator'
p1191
sa(dp1192
g2
I1
sg3
S'Micronet Ltd.'
p1193
sg5
I21
sg6
S'Azur, Israel'
p1194
sg8
I313
sg9
S'Software Team Leader'
p1195
sa(dp1196
g2
I2
sg3
S'Q Core Medical'
p1197
sg5
I9
sg6
S'Petah Tikva, Israel'
p1198
sg8
I314
sg9
S'Software Engineer'
p1199
sa(dp1200
g2
I3
sg3
S'Card Guard'
p1201
sg5
I24
sg8
I315
sg9
S'Software engineer'
p1202
sa(dp1203
g17
S'mobile'
p1204
sg2
I4
sg19
I01
sg3
S'Cellebrite'
p1205
sg5
I42
sg8
I316
sg13
S'$0'
p1206
sg15
I00
sg16
Nsg20
I1999
sg65
Nsg9
S'Project and Team Leader'
p1207
sa(dp1208
g2
I5
sg3
S'Card Guard'
p1209
sg5
I93
sg8
I317
sg9
S'Senior Software engineer, Project Leader'
p1210
sa(dp1211
g2
I1
sg3
S'Shine Security'
p1212
sg5
I16
sg8
I318
sg9
S'Founder & CTO'
p1213
sa(dp1214
g3
S'Comsec'
p1215
sg5
I12
sg13
S'$0'
p1216
sg15
I00
sg16
Nsg8
I319
sg17
Nsg2
I2
sg19
I00
sg20
Nsg9
S'Application Security Consultant'
p1217
sa(dp1218
g2
I3
sg3
S'Ephraim Dan'
p1219
sg5
I32
sg8
I320
sg9
S'Security Engineer'
p1220
sa(dp1221
g2
I4
sg3
S'Eran Aloni'
p1222
sg5
I8
sg8
I321
sg9
S'Senior Analyst'
p1223
sa(dp1224
g2
I5
sg3
S'Dana Kalsky (Kirsch)'
p1225
sg5
I64
sg8
I322
sg9
S'Information Security Consultant'
p1226
sa(dp1227
g2
I1
sg3
S'ForeScout Technologies'
p1228
sg5
I36
sg6
S'TelAviv, Israel'
p1229
sg8
I323
sg9
S'Technical lead of Endpoint solutions team'
p1230
sa(dp1231
g2
I2
sg3
S'ForeScout Technologies'
p1232
sg5
I33
sg6
S'TelAviv, Israel'
p1233
sg8
I324
sg9
S'Senior Software developer'
p1234
sa(dp1235
g2
I3
sg3
S'HP Software'
p1236
sg5
I30
sg6
S'Yehud, Israel'
p1237
sg8
I325
sg9
S'Software developer'
p1238
sa(dp1239
g17
S'public_relations'
p1240
sg2
I4
sg19
I01
sg3
S'ICQ'
p1241
sg5
I34
sg8
I326
sg13
S'$0'
p1242
sg6
S'TelAviv, Israel'
p1243
sg15
I00
sg16
Nsg20
I1997
sg65
F187500000.0
sg9
S'Software Developer'
p1244
sa(dp1245
g2
I5
sg3
S'Alladin Knowledge Systems'
p1246
sg5
I27
sg6
S'TelAviv, Israel'
p1247
sg8
I327
sg9
S'Software Developer'
p1248
sa(dp1249
g2
I6
sg3
S'Russian Railways'
p1250
sg5
I26
sg6
S'Volgograd Region, Russian Federation'
p1251
sg8
I328
sg9
S'Information services engineer'
p1252
sa(dp1253
g2
I1
sg3
S'SQLink'
p1254
sg5
I45
sg6
S'Tel Aviv'
p1255
sg8
I329
sg9
S'Senior programmer'
p1256
sa(dp1257
g2
I2
sg3
S'Discount Bank'
p1258
sg5
I84
sg6
S'Tel Aviv'
p1259
sg8
I330
sg9
S'Senior programmer'
p1260
sa(dp1261
g2
I3
sg3
S'Liraz - EDS'
p1262
sg5
I97
sg6
S'Holon - Herzliya'
p1263
sg8
I331
sg9
S'Senior programmer'
p1264
sa(dp1265
g2
I4
sg3
S'Praedicta'
p1266
sg5
I36
sg8
I332
sg9
S'programmer'
p1267
sa(dp1268
g3
S'Mars'
p1269
sg5
I10
sg13
S'$0'
p1270
sg15
I00
sg16
Nsg8
I333
sg17
Nsg2
I1
sg19
I00
sg20
Nsg9
S"Associate Brand Manager - Uncle Ben's Rice"
p1271
sa(dp1272
g2
I2
sg3
S'Mars Petcare'
p1273
sg5
I13
sg8
I334
sg9
S'Associate Brand Manager - Pedigree'
p1274
sa(dp1275
g2
I3
sg3
S'Nissan North America'
p1276
sg5
I3
sg8
I335
sg9
S'Social Media Marketing Intern'
p1277
sa(dp1278
g17
S'search'
p1279
sg2
I1
sg135
Nsg136
I2004
sg16
I28000
sg3
S'Google'
p1280
sg5
I10
sg8
I336
sg13
S'$25.1M'
p1281
sg6
S'Mountain View, California'
p1282
sg15
I01
sg19
I00
sg20
I1998
sg9
S'Partner Technology Manager'
p1283
sa(dp1284
g2
I2
sg3
S'Carnegie Mellon University'
p1285
sg5
I22
sg8
I337
sg9
S'MBA Student'
p1286
sa(dp1287
g17
S'search'
p1288
sg2
I3
sg135
Nsg136
I2004
sg16
I28000
sg3
S'Google'
p1289
sg5
I3
sg8
I338
sg13
S'$25.1M'
p1290
sg6
S'Mountain View, CA'
p1291
sg15
I01
sg19
I00
sg20
I1998
sg9
S'Partner Technology Manager Intern'
p1292
sa(dp1293
g2
I4
sg3
S'SAP Labs'
p1294
sg5
I6
sg6
S'Bangalore, India'
p1295
sg8
I339
sg9
S'Team Architect'
p1296
sa(dp1297
g2
I5
sg3
S'SAP Labs'
p1298
sg5
I12
sg6
S'Bangalore, India'
p1299
sg8
I340
sg9
S'Associate Architect'
p1300
sa(dp1301
g2
I6
sg3
S'SAP Labs'
p1302
sg5
I12
sg6
S'Bangalore, India'
p1303
sg8
I341
sg9
S'Principle Software Engineer'
p1304
sa(dp1305
g2
I7
sg3
S'SAP Labs'
p1306
sg5
I41
sg6
S'Bangalore, India'
p1307
sg8
I342
sg9
S'Software Engineer / Senior Software Engineer'
p1308
sa(dp1309
g2
I1
sg3
S'CloudLock'
p1310
sg5
I30
sg8
I343
sg9
S'Director Business Operations'
p1311
sa(dp1312
g2
I2
sg3
S'CloudLock'
p1313
sg5
I26
sg8
I344
sg9
S'Director Product Management'
p1314
sa(dp1315
g2
I3
sg3
S'EMC Corporation'
p1316
sg5
I27
sg8
I345
sg9
S'Senior Manager - Portfolio'
p1317
sa(dp1318
g17
S'enterprise'
p1319
sg2
I4
sg135
Nsg136
I1986
sg16
Nsg3
S'EMC'
p1320
sg5
I21
sg8
I346
sg13
S'$0'
p1321
sg15
I01
sg19
I00
sg20
I1979
sg9
S'Manager, Application Development and Portfolio'
p1322
sa(dp1323
g17
S'enterprise'
p1324
sg2
I5
sg135
Nsg136
I1986
sg16
Nsg3
S'EMC'
p1325
sg5
I72
sg8
I347
sg13
S'$0'
p1326
sg15
I01
sg19
I00
sg20
I1979
sg9
S'Development Manager, IT'
p1327
sa(dp1328
g2
I6
sg3
S'Ergo Consulting'
p1329
sg5
I18
sg8
I348
sg9
S'Project Manager'
p1330
sa(dp1331
g2
I1
sg3
S'Opisoft'
p1332
sg5
I26
sg8
I349
sg9
S'BI Programmer/Implementor'
p1333
sa(dp1334
g2
I2
sg3
S'Israel Postal Bank'
p1335
sg5
I24
sg8
I350
sg9
S'Economist, Governmental & Institutional Sector'
p1336
sa(dp1337
g2
I3
sg3
S'Israel Postal Bank'
p1338
sg5
I23
sg8
I351
sg9
S'Financial Analyst, Customer Sector'
p1339
sa(dp1340
g17
S'software'
p1341
sg2
I1
sg135
F11003200.0
sg136
I2010
sg16
Nsg3
S'Eran Klein'
p1342
sg5
I16
sg8
I352
sg13
S'$37M'
p1343
sg15
I01
sg19
I00
sg20
I2006
sg9
S'Server Side Developer'
p1344
sa(dp1345
g3
S'CrossReader'
p1346
sg5
I12
sg13
S'$0'
p1347
sg15
I00
sg16
I8
sg8
I353
sg17
S'web'
p1348
sg2
I2
sg19
I00
sg20
I2011
sg6
S'Israel'
p1349
sg9
S'J2EE Developer'
p1350
sa(dp1351
g3
S'Stas Spivak'
p1352
sg5
I12
sg13
S'$0'
p1353
sg15
I00
sg16
Nsg8
I354
sg17
Nsg2
I3
sg19
I00
sg20
Nsg9
S'Software Developer'
p1354
sa(dp1355
g2
I4
sg3
S'Mamram (IDF)'
p1356
sg5
I67
sg8
I355
sg9
S'j2ee developer'
p1357
sa(dp1358
g2
I1
sg3
S'NSN'
p1359
sg5
I27
sg6
S'Hod-ha-Sharon, Israel'
p1360
sg8
I356
sg9
S'Software Engineer'
p1361
sa(dp1362
g2
I2
sg3
S'Motorola Solutions'
p1363
sg5
I87
sg6
S'Tel-Aviv, Israel'
p1364
sg8
I357
sg9
S'Software Developer'
p1365
sa(dp1366
g2
I1
sg3
S'Lovsky, web & graphic design'
p1367
sg5
I48
sg6
S'jerusalem'
p1368
sg8
I358
sg9
S'Web & Graphic Designer'
p1369
sa(dp1370
g2
I2
sg3
S'Amos Weiskopf'
p1371
sg5
I48
sg8
I359
sg9
S'Artdirector'
p1372
sa(dp1373
g2
I3
sg3
S'Manfrotto Bags'
p1374
sg5
I48
sg8
I360
sg9
S'art director'
p1375
sa(dp1376
g2
I4
sg3
S'Say - brand Israel'
p1377
sg5
I12
sg8
I361
sg9
S'web and graphic designer'
p1378
sa(dp1379
g2
I5
sg3
S'Say - Brand strategy & Expression'
p1380
sg5
I14
sg8
I362
sg9
S'Graphic designer'
p1381
sa(dp1382
g2
I1
sg3
S'University of Nottingham'
p1383
sg5
I33
sg8
I363
sg9
S'PhD Student'
p1384
sa(dp1385
g2
I2
sg3
S'Microsoft Research'
p1386
sg5
I3
sg6
S'Cambridge, United Kingdom'
p1387
sg8
I364
sg9
S'Research Intern'
p1388
sa(dp1389
g2
I3
sg3
S'Bartlett School of Graduate Studies'
p1390
sg5
I3
sg6
S'London, United Kingdom'
p1391
sg8
I365
sg9
S'Visiting Research Student'
p1392
sa(dp1393
g2
I4
sg3
S'Microsoft Research'
p1394
sg5
I35
sg8
I366
sg9
S'Interaction Designer'
p1395
sa(dp1396
g2
I5
sg3
S'Siemens AG'
p1397
sg5
I25
sg8
I367
sg9
S'Interface Designer'
p1398
sa(dp1399
g2
I6
sg3
S'Matsushita Electric Works'
p1400
sg5
I2
sg8
I368
sg9
S'Intern'
p1401
sa(dp1402
g2
I7
sg3
S'Fraunhofer IAO'
p1403
sg5
I1
sg8
I369
sg9
S'Intern'
p1404
sa(dp1405
g3
S'nana10'
p1406
sg5
I6
sg13
S'$0'
p1407
sg15
I00
sg16
Nsg8
I370
sg17
Nsg2
I1
sg19
I00
sg20
Nsg6
S'Haifa, Israel'
p1408
sg9
S'Web Developer'
p1409
sa(dp1410
g3
S'Cortica'
p1411
sg5
I13
sg13
S'$17.9M'
p1412
sg15
I00
sg16
I20
sg8
I371
sg17
S'advertising'
p1413
sg2
I2
sg19
I00
sg20
I2007
sg6
S'Haifa, Israel'
p1414
sg9
S'Web developer'
p1415
sa(dp1416
g3
S'Sergata'
p1417
sg5
I14
sg13
S'$0'
p1418
sg15
I00
sg16
Nsg8
I372
sg17
S'software'
p1419
sg2
I3
sg19
I00
sg20
I2006
sg6
S'Ramat Gan'
p1420
sg9
S'Web developer'
p1421
sa(dp1422
g2
I4
sg3
S'iQtech'
p1423
sg5
I12
sg8
I373
sg9
S'Web developer'
p1424
sa(dp1425
g2
I5
sg3
S'Yellow Pages Group Israel'
p1426
sg5
I12
sg8
I374
sg9
S'Front end web developer'
p1427
sa(dp1428
g2
I1
sg3
S'Publicis Israel'
p1429
sg5
I15
sg8
I375
sg9
S'CEO'
p1430
sa(dp1431
g2
I2
sg3
S'Hogla-Kimberly'
p1432
sg5
I32
sg8
I376
sg9
S'Managing Director'
p1433
sa(dp1434
g2
I3
sg3
S'Kimberly-Clark Turkey'
p1435
sg5
I53
sg8
I377
sg9
S'Managing Director'
p1436
sa(dp1437
g17
S'software'
p1438
sg2
I1
sg135
Nsg136
I1978
sg16
I388000
sg3
S'IBM'
p1439
sg5
I2
sg8
I378
sg13
S'$0'
p1440
sg15
I01
sg19
I00
sg20
I1896
sg9
S'STG storage sales manager'
p1441
sa(dp1442
g17
S'software'
p1443
sg2
I2
sg135
Nsg136
I1978
sg16
I388000
sg3
S'IBM'
p1444
sg5
I26
sg8
I379
sg13
S'$0'
p1445
sg15
I01
sg19
I00
sg20
I1896
sg9
S'STG Enterprise sales manager'
p1446
sa(dp1447
g17
S'software'
p1448
sg2
I3
sg135
Nsg136
I1978
sg16
I388000
sg3
S'Rani Golan'
p1449
sg5
I30
sg8
I380
sg13
S'$0'
p1450
sg15
I01
sg19
I00
sg20
I1896
sg9
S'STG FTSS manager - Pre sale support'
p1451
sa(dp1452
g17
S'software'
p1453
sg2
I4
sg135
Nsg136
I1978
sg16
I388000
sg3
S'IBM'
p1454
sg5
I25
sg8
I381
sg13
S'$0'
p1455
sg15
I01
sg19
I00
sg20
I1896
sg9
S'STG SMB sales manager'
p1456
sa(dp1457
g17
S'software'
p1458
sg2
I5
sg135
Nsg136
I1978
sg16
I388000
sg3
S'IBM'
p1459
sg5
I24
sg8
I382
sg13
S'$0'
p1460
sg15
I01
sg19
I00
sg20
I1896
sg9
S'xSeries GB sales leader'
p1461
sa(dp1462
g17
S'software'
p1463
sg2
I6
sg135
Nsg136
I1978
sg16
I388000
sg3
S'IBM'
p1464
sg5
I48
sg8
I383
sg13
S'$0'
p1465
sg15
I01
sg19
I00
sg20
I1896
sg9
S'xSeries Specialist,Support Teamleader'
p1466
sa(dp1467
g2
I7
sg3
S'Ucallnet'
p1468
sg5
I11
sg8
I384
sg9
S'System Engineer'
p1469
sa(dp1470
g2
I8
sg3
S'Targetix\tNes Ziona'
p1471
sg5
I13
sg8
I385
sg9
S'System Engineer'
p1472
sa(dp1473
g2
I9
sg3
S'IBM systems Israel           Rishon'
p1474
sg5
I37
sg8
I386
sg9
S'System Engineer'
p1475
sa(dp1476
g3
S'Ringya'
p1477
sg5
I27
sg13
S'$0'
p1478
sg15
I00
sg16
Nsg8
I387
sg17
Nsg2
I1
sg19
I00
sg20
Nsg9
S'Co-Founder & VP Products'
p1479
sa(dp1480
g2
I2
sg3
S'Watching-the-Wheels.com'
p1481
sg5
I7
sg8
I388
sg9
S'Watching the wheels'
p1482
sa(dp1483
g2
I3
sg3
S'Flash Networks'
p1484
sg5
I16
sg8
I389
sg9
S'Senior Director, Head of Pre-Sales'
p1485
sa(dp1486
g2
I4
sg3
S'Flash Networks'
p1487
sg5
I8
sg8
I390
sg9
S'Senior Director of Customer Solutions'
p1488
sa(dp1489
g2
I5
sg3
S'Unipier'
p1490
sg5
I5
sg8
I391
sg9
S'VP Customer Solutions'
p1491
sa(dp1492
g2
I6
sg3
S'Unipier'
p1493
sg5
I47
sg8
I392
sg9
S'Director of Product Management'
p1494
sa(dp1495
g3
S'Comverse'
p1496
sg5
I17
sg13
S'$0'
p1497
sg15
I00
sg16
Nsg8
I393
sg17
S'software'
p1498
sg2
I7
sg19
I00
sg20
I1984
sg9
S'Product Manager'
p1499
sa(dp1500
g3
S'Comverse'
p1501
sg5
I33
sg13
S'$0'
p1502
sg15
I00
sg16
Nsg8
I394
sg17
S'software'
p1503
sg2
I8
sg19
I00
sg20
I1984
sg9
S'MMSC Technology Leader'
p1504
sa(dp1505
g3
S'Comverse'
p1506
sg5
I23
sg13
S'$0'
p1507
sg15
I00
sg16
Nsg8
I395
sg17
S'software'
p1508
sg2
I9
sg19
I00
sg20
I1984
sg9
S'R&D Group Manager'
p1509
sa(dp1510
g3
S'IDF'
p1511
sg5
I48
sg13
S'$0'
p1512
sg15
I00
sg16
Nsg8
I396
sg17
Nsg2
I10
sg19
I00
sg20
Nsg9
S'Project manager and R&D leader'
p1513
sa(dp1514
g3
S'IDF'
p1515
sg5
I60
sg13
S'$0'
p1516
sg15
I00
sg16
Nsg8
I397
sg17
Nsg2
I11
sg19
I00
sg20
Nsg9
S'HR planning systems development section leader'
p1517
sa(dp1518
g3
S'WisePricer'
p1519
sg5
I21
sg13
S'$0'
p1520
sg15
I00
sg16
I18
sg8
I398
sg17
S'ecommerce'
p1521
sg2
I1
sg19
I00
sg20
I2012
sg9
S'Founder & CEO'
p1522
sa(dp1523
g3
S'Sveta Oksen'
p1524
sg5
I34
sg13
S'$0'
p1525
sg15
I00
sg16
I12
sg8
I399
sg17
S'ecommerce'
p1526
sg2
I2
sg19
I00
sg20
I2007
sg9
S'Founder & CEO'
p1527
sa(dp1528
g2
I3
sg3
S'Israel Attorney General'
p1529
sg5
I8
sg8
I400
sg9
S'Intern'
p1530
sa(dp1531
g2
I4
sg3
S'Elan Carter'
p1532
sg5
I10
sg8
I401
sg9
S'Spokesperson'
p1533
sa(dp1534
g2
I1
sg3
S'Intel Corporation'
p1535
sg5
I67
sg6
S'Israel'
p1536
sg8
I402
sg9
S'Software Engineer - Wi-Fi Driver Developer'
p1537
sa(dp1538
g2
I1
sg3
S'Gourmetix'
p1539
sg5
I0
sg8
I403
sg9
S'Owner'
p1540
sa(dp1541
g2
I2
sg3
S'Gourmetix'
p1542
sg5
I66
sg8
I404
sg9
S'CEO and Founder'
p1543
sa(dp1544
g3
S'ooVoo'
p1545
sg5
I2
sg13
S'$0'
p1546
sg15
I00
sg16
I95
sg8
I405
sg17
S'web'
p1547
sg2
I1
sg19
I00
sg20
I2007
sg6
S'israel'
p1548
sg9
S'iOS Developer'
p1549
sa(dp1550
g17
S'mobile'
p1551
sg2
I2
sg135
Nsg136
I2006
sg16
I1500
sg3
S'Vonage'
p1552
sg5
I16
sg8
I406
sg13
S'$0'
p1553
sg15
I01
sg19
I00
sg20
I2001
sg9
S'iOS Developer'
p1554
sa(dp1555
g2
I3
sg3
S'inUgo'
p1556
sg5
I24
sg8
I407
sg9
S'iOS Developer'
p1557
sa(dp1558
g3
S'OptiTex'
p1559
sg5
I84
sg13
S'$0'
p1560
sg15
I00
sg16
Nsg8
I408
sg17
Nsg2
I4
sg19
I00
sg20
Nsg9
S'Software Developer & 3D Artist'
p1561
sa(dp1562
g2
I5
sg3
S'Enbaya'
p1563
sg5
I24
sg8
I409
sg9
S'3D Artist'
p1564
sa(dp1565
g2
I6
sg3
S'Scanvec-Amiable'
p1566
sg5
I36
sg8
I410
sg9
S'Webmaster'
p1567
sa(dp1568
g17
S'search'
p1569
sg2
I1
sg135
Nsg136
I2004
sg16
I28000
sg3
S'Google'
p1570
sg5
I39
sg8
I411
sg13
S'$25.1M'
p1571
sg15
I01
sg19
I00
sg20
I1998
sg9
S'Partner technology manager'
p1572
sa(dp1573
g17
S'search'
p1574
sg2
I2
sg135
Nsg136
I2004
sg16
I28000
sg3
S'Google'
p1575
sg5
I54
sg8
I412
sg13
S'$25.1M'
p1576
sg15
I01
sg19
I00
sg20
I1998
sg9
S'Lead Technical Account Manager'
p1577
sa(dp1578
g2
I3
sg3
S'Matrix-Data'
p1579
sg5
I12
sg8
I413
sg9
S'Technical Project Manager'
p1580
sa(dp1581
g2
I4
sg3
S'Comfy'
p1582
sg5
I19
sg8
I414
sg9
S'Head of Development'
p1583
sa(dp1584
g2
I5
sg3
S'Alfy Inc'
p1585
sg5
I24
sg8
I415
sg9
S'Technical Project Manager'
p1586
sa(dp1587
g3
S'Kaltura'
p1588
sg5
I60
sg13
S'$69.1M'
p1589
sg15
I00
sg16
I160
sg8
I416
sg17
S'software'
p1590
sg2
I1
sg19
I00
sg20
I2006
sg9
S'VP Product'
p1591
sa(dp1592
g2
I2
sg3
S'eWave'
p1593
sg5
I28
sg8
I417
sg9
S'Project Manager'
p1594
sa(dp1595
g2
I3
sg3
S'2train4 (acquired by eWave)'
p1596
sg5
I12
sg8
I418
sg9
S'Consultant and Team Leader'
p1597
sa(dp1598
g17
S'software'
p1599
sg2
I1
sg135
Nsg136
I1986
sg16
I90000
sg3
S'Microsoft'
p1600
sg5
I12
sg8
I419
sg13
S'$0'
p1601
sg6
S'Israel'
p1602
sg15
I01
sg19
I00
sg20
I1974
sg9
S'CTO of Israel Development Center'
p1603
sa(dp1604
g17
S'software'
p1605
sg2
I2
sg135
Nsg136
I1986
sg16
I90000
sg3
S'Microsoft'
p1606
sg5
I6
sg8
I420
sg13
S'$0'
p1607
sg6
S'Israel/Redmond'
p1608
sg15
I01
sg19
I00
sg20
I1974
sg9
S'Director Security Engineering, Interactive Entertainment Business'
p1609
sa(dp1610
g17
S'software'
p1611
sg2
I3
sg135
Nsg136
I1986
sg16
I90000
sg3
S'Microsoft'
p1612
sg5
I11
sg8
I421
sg13
S'$0'
p1613
sg6
S'Israel'
p1614
sg15
I01
sg19
I00
sg20
I1974
sg9
S'Director of Program Management - Management and Security Division'
p1615
sa(dp1616
g17
S'software'
p1617
sg2
I4
sg135
Nsg136
I1986
sg16
I90000
sg3
S'Microsoft'
p1618
sg5
I35
sg8
I422
sg13
S'$0'
p1619
sg6
S'Israel'
p1620
sg15
I01
sg19
I00
sg20
I1974
sg9
S'Product Unit Manager - Management and Security Division'
p1621
sa(dp1622
g3
S'Astea'
p1623
sg5
I27
sg13
S'$0'
p1624
sg15
I00
sg16
Nsg8
I423
sg17
Nsg2
I5
sg19
I00
sg20
Nsg6
S'Israel'
p1625
sg9
S'VP R&D'
p1626
sa(dp1627
g17
S'software'
p1628
sg2
I6
sg135
Nsg136
I1986
sg16
I90000
sg3
S'Microsoft'
p1629
sg5
I96
sg8
I424
sg13
S'$0'
p1630
sg15
I01
sg19
I00
sg20
I1974
sg9
S'Group Manager'
p1631
sa(dp1632
g17
S'hardware'
p1633
sg2
I7
sg135
Nsg136
I1978
sg16
I86300
sg3
S'Intel'
p1634
sg5
I60
sg8
I425
sg13
S'$0'
p1635
sg15
I01
sg19
I00
sg20
I1968
sg9
S'Team Leader'
p1636
sa(dp1637
g2
I1
sg3
S'Aspasyan'
p1638
sg5
I36
sg8
I426
sg9
S'President/Managing Partner'
p1639
sa(dp1640
g2
I2
sg3
S'Kopelman Ltd.'
p1641
sg5
I96
sg8
I427
sg9
S'Manager and Business Development'
p1642
sa(dp1643
g3
S'WhiteSmoke'
p1644
sg5
I20
sg13
S'$600k'
p1645
sg15
I00
sg16
Nsg8
I428
sg17
S'software'
p1646
sg2
I3
sg19
I00
sg20
I2002
sg9
S'Board Member'
p1647
sa(dp1648
g2
I4
sg3
S'Alfabetic (acquired by WhiteSmoke)'
p1649
sg5
I23
sg8
I429
sg9
S'Co Founder / COO'
p1650
sa(dp1651
g3
S'GreenRoad'
p1652
sg5
I36
sg13
S'$0'
p1653
sg15
I00
sg16
Nsg8
I430
sg17
Nsg2
I5
sg19
I00
sg20
Nsg9
S'Board Member'
p1654
sa(dp1655
g2
I6
sg3
S'Relegence (Acquired by AOL)'
p1656
sg5
I65
sg8
I431
sg9
S'Co-Founder/GM R&D'
p1657
sa(dp1658
g2
I7
sg3
S'Tink Productions'
p1659
sg5
I36
sg8
I432
sg9
S'Co-Founder and General Manager'
p1660
sa(dp1661
g2
I8
sg3
S'Virtual Arts'
p1662
sg5
I72
sg8
I433
sg9
S'Co-Founder and Head of Development'
p1663
sa(dp1664
g2
I9
sg3
S'MediClick Ltd.'
p1665
sg5
I12
sg8
I434
sg9
S'Head of Development'
p1666
sa(dp1667
g2
I1
sg3
S'Ashdar Building Company'
p1668
sg5
I0
sg8
I435
sg9
S'ceo'
p1669
sa(dp1670
g2
I2
sg3
S'ashdar'
p1671
sg5
I180
sg8
I436
sg9
S'vp'
p1672
sa(dp1673
g2
I3
sg3
S'Africa Israel'
p1674
sg5
I156
sg8
I437
sg9
S'vp'
p1675
sa(dp1676
g2
I1
sg3
S'Intel Corporation'
p1677
sg5
I11
sg6
S'Israel'
p1678
sg8
I438
sg9
S'Strategic Planning'
p1679
sa(dp1680
g17
S'mobile'
p1681
sg2
I2
sg135
Nsg136
I1994
sg16
I125000
sg3
S'Nokia'
p1682
sg5
I9
sg8
I439
sg13
S'$0'
p1683
sg15
I01
sg19
I00
sg20
I1865
sg9
S'Global Program Manager, Mobile Payments'
p1684
sa(dp1685
g17
S'mobile'
p1686
sg2
I3
sg135
Nsg136
I1994
sg16
I125000
sg3
S'Minna Karlsberg'
p1687
sg5
I12
sg8
I440
sg13
S'$0'
p1688
sg6
S'United Kingdom'
p1689
sg15
I01
sg19
I00
sg20
I1865
sg9
S'Market Launch Program Manager, Nokia Maps'
p1690
sa(dp1691
g17
S'mobile'
p1692
sg2
I4
sg135
Nsg136
I1994
sg16
I125000
sg3
S'Petri Asunmaa'
p1693
sg5
I25
sg8
I441
sg13
S'$0'
p1694
sg6
S'United Kingdom'
p1695
sg15
I01
sg19
I00
sg20
I1865
sg9
S'Global Delivery Program Manager, Nokia Services'
p1696
sa(dp1697
g17
S'mobile'
p1698
sg2
I5
sg135
Nsg136
I1994
sg16
I125000
sg3
S'Nokia'
p1699
sg5
I8
sg8
I442
sg13
S'$0'
p1700
sg6
S'United Kingdom'
p1701
sg15
I01
sg19
I00
sg20
I1865
sg9
S'Head of Professional Services, Consumer and Enterprise Messaging'
p1702
sa(dp1703
g2
I6
sg3
S'Ciaran Flanagan'
p1704
sg5
I18
sg6
S'United Kingdom'
p1705
sg8
I443
sg9
S'Professional Services Manager, Mobility'
p1706
sa(dp1707
g2
I7
sg3
S'Kevin Orgill'
p1708
sg5
I47
sg6
S'United Kingdom'
p1709
sg8
I444
sg9
S'Enterprise Solution Architect'
p1710
sa(dp1711
g2
I8
sg3
S'Eran Birk'
p1712
sg5
I44
sg6
S'Israel'
p1713
sg8
I445
sg9
S'Engineering and Development Team Lead IT'
p1714
sa(dp1715
g2
I9
sg3
S'Intel Corporation (Israel)'
p1716
sg5
I14
sg6
S'Israel'
p1717
sg8
I446
sg9
S'Development Team Leader, Standard Operating Environment (SOE), IT'
p1718
sa(dp1719
g2
I10
sg3
S'Intel Corporation'
p1720
sg5
I46
sg6
S'Israel'
p1721
sg8
I447
sg9
S'Developer - IT'
p1722
sa(dp1723
g2
I11
sg3
S'Rank of Captain'
p1724
sg5
I69
sg8
I448
sg9
S'Naval Officer'
p1725
sa(dp1726
g2
I1
sg3
S'IBM Israel'
p1727
sg5
I14
sg8
I449
sg9
S'Architect, IBM Worklight Mobile Platform'
p1728
sa(dp1729
g17
S'mobile'
p1730
sg2
I2
sg19
I01
sg3
S'Ran Enrico Magen'
p1731
sg5
I75
sg8
I450
sg13
S'$17.6M'
p1732
sg15
I00
sg16
I30
sg20
I2006
sg65
F70000000.0
sg9
S'Chief Architect'
p1733
sa(dp1734
g2
I3
sg3
S'SAP Labs, Israel'
p1735
sg5
I21
sg8
I451
sg9
S'Software Architect'
p1736
sa(dp1737
g2
I4
sg3
S'Schema Ltd.'
p1738
sg5
I15
sg6
S'Hertzlia, Israel'
p1739
sg8
I452
sg9
S'Senior software engineer and Team lead'
p1740
sa(dp1741
g3
S'Unisfair'
p1742
sg5
I38
sg13
S'$22.2M'
p1743
sg15
I00
sg16
Nsg8
I453
sg17
S'enterprise'
p1744
sg2
I5
sg19
I00
sg20
I2000
sg9
S'Chief Architect and Development Manager'
p1745
sa(dp1746
g2
I6
sg3
S'Amdocs (Israel) Ltd.'
p1747
sg5
I20
sg8
I454
sg9
S'Java Infrastructure Project lead'
p1748
sa(dp1749
g2
I7
sg3
S'Amdocs (Israel) Ltd.'
p1750
sg5
I11
sg6
S'Raanana, Israel'
p1751
sg8
I455
sg9
S'Java Team lead'
p1752
sa(dp1753
g2
I8
sg3
S'Amdocs (Israel) Ltd.'
p1754
sg5
I34
sg6
S'Ramat Gan, Israel'
p1755
sg8
I456
sg9
S'C++ programmer / senior programmer'
p1756
sa(dp1757
g2
I1
sg3
S'Nokia gate5 GmbH'
p1758
sg5
I18
sg6
S'Berlin Area, Germany'
p1759
sg8
I457
sg9
S'Java Software Engineer'
p1760
sa(dp1761
g2
I2
sg3
S'Self-employed (MAYANETBIS)'
p1762
sg5
I33
sg8
I458
sg9
S'IT Consultant'
p1763
sa(dp1764
g2
I3
sg3
S'Direct Insurance Services Center, Warsaw, Poland'
p1765
sg5
I20
sg8
I459
sg9
S'Senior J2EE developer/designer'
p1766
sa(dp1767
g2
I4
sg3
S'eo Networks, Warsaw, Poland'
p1768
sg5
I14
sg8
I460
sg9
S'J2EE Designer/developer'
p1769
sa(dp1770
g2
I5
sg3
S'Bauer Publishing House, Warsaw, Poland'
p1771
sg5
I5
sg8
I461
sg9
S'Designer/developer (Perl, PHP)'
p1772
sa(dp1773
g2
I6
sg3
S'Centre for Health Information Systems, Warsaw, Poland (government)'
p1774
sg5
I9
sg8
I462
sg9
S'IT Team Leader'
p1775
sa(dp1776
g2
I7
sg3
S'Marshal Office of Mazowieckie Voivodeship, Warsaw, Poland (government)'
p1777
sg5
I8
sg8
I463
sg9
S'Specialist for reporting and statisticts'
p1778
sa(dp1779
g2
I8
sg3
S'Interbank Center of Cash Processing, Cracow, Poland'
p1780
sg5
I18
sg8
I464
sg9
S'Designer/Developer (Visual Basic, MSSQL), Administrator (Win 2K domain)'
p1781
sa(dp1782
g2
I9
sg3
S'INTERIA.PL (one of the biggest polish internet portals)'
p1783
sg5
I29
sg8
I465
sg9
S'Designer/developer (PHP, Perl, Java, Oracle, MySQL)'
p1784
sa(dp1785
g2
I10
sg3
S'Paging System PULS, Cracow, Poland'
p1786
sg5
I27
sg8
I466
sg9
S'IT Team Leader'
p1787
sa(dp1788
g2
I11
sg3
S'ELBOX-VIDEO, Cracow, Poland'
p1789
sg5
I36
sg8
I467
sg9
S'Designer/developer (C, assembler)'
p1790
sa(dp1791
g2
I12
sg3
S'Befared, Bielsko-Biala, Poland'
p1792
sg5
I4
sg8
I468
sg9
S'Junior administrator (Novell), developer (Clipper)'
p1793
sa(dp1794
g3
S'freelance'
p1795
sg5
I84
sg13
S'$0'
p1796
sg15
I00
sg16
Nsg8
I469
sg17
Nsg2
I13
sg19
I00
sg20
Nsg9
S'Programmer (assembler)'
p1797
sa(dp1798
g17
S'search'
p1799
sg2
I1
sg135
Nsg136
I2004
sg16
I28000
sg3
S'Google'
p1800
sg5
I19
sg8
I470
sg13
S'$25.1M'
p1801
sg6
S'Tel-Aviv'
p1802
sg15
I01
sg19
I00
sg20
I1998
sg9
S'Software Engineer'
p1803
sa(dp1804
g3
S'Trendemon'
p1805
sg5
I11
sg13
S'$200k'
p1806
sg15
I00
sg16
I6
sg8
I471
sg17
S'advertising'
p1807
sg2
I2
sg19
I00
sg20
I2011
sg9
S'CTO'
p1808
sa(dp1809
g2
I3
sg3
S'Avi Kessel'
p1810
sg5
I22
sg6
S'Hertzelia, Israel'
p1811
sg8
I472
sg9
S'Senior Software Architect'
p1812
sa(dp1813
g17
S'software'
p1814
sg2
I4
sg19
I01
sg3
S'Shahar Tzafrir'
p1815
sg5
I57
sg8
I473
sg13
S'$0'
p1816
sg15
I00
sg16
Nsg20
I2000
sg65
Nsg9
S'Chief Architect'
p1817
sa(dp1818
g2
I5
sg3
S'Transparency Software'
p1819
sg5
I0
sg8
I474
sg9
S'Chief Algorithmic Expert'
p1820
sa(dp1821
g17
S'software'
p1822
sg2
I6
sg19
I01
sg3
S'Oblicore'
p1823
sg5
I12
sg8
I475
sg13
S'$0'
p1824
sg15
I00
sg16
Nsg20
I2000
sg65
Nsg9
S'Team Leader'
p1825
sa(dp1826
g17
S'software'
p1827
sg2
I7
sg19
I01
sg3
S'Oblicore'
p1828
sg5
I36
sg8
I476
sg13
S'$0'
p1829
sg15
I00
sg16
Nsg20
I2000
sg65
Nsg9
S'Software Developer'
p1830
sa(dp1831
g3
S'IAF'
p1832
sg5
I60
sg13
S'$0'
p1833
sg15
I00
sg16
Nsg8
I477
sg17
Nsg2
I8
sg19
I00
sg20
Nsg9
S'Team Leader'
p1834
sa(dp1835
g3
S'Contextin'
p1836
sg5
I18
sg13
S'$0'
p1837
sg15
I00
sg16
I20
sg8
I478
sg17
S'advertising'
p1838
sg2
I1
sg19
I00
sg20
I2007
sg6
S'Israel'
p1839
sg9
S'R&D Team Leader'
p1840
sa(dp1841
g3
S'CONTEXTin'
p1842
sg5
I25
sg13
S'$0'
p1843
sg15
I00
sg16
I20
sg8
I479
sg17
S'advertising'
p1844
sg2
I2
sg19
I00
sg20
I2007
sg9
S'Java developer'
p1845
sa(dp1846
g2
I3
sg3
S'Media Layers'
p1847
sg5
I19
sg8
I480
sg9
S'java developer'
p1848
sa(dp1849
g17
S'hardware'
p1850
sg2
I4
sg135
Nsg136
I1978
sg16
I86300
sg3
S'Intel'
p1851
sg5
I17
sg8
I481
sg13
S'$0'
p1852
sg15
I01
sg19
I00
sg20
I1968
sg9
S'Developer in validation team'
p1853
sa(dp1854
g17
S'software'
p1855
sg2
I1
sg19
I01
sg3
S'Soluto'
p1856
sg5
I15
sg8
I482
sg13
S'$18M'
p1857
sg6
S'Tel Aviv'
p1858
sg15
I00
sg16
I50
sg20
I2008
sg65
F130000000.0
sg9
S'Tech Lead'
p1859
sa(dp1860
g17
S'software'
p1861
sg2
I2
sg19
I01
sg3
S'Soluto'
p1862
sg5
I11
sg8
I483
sg13
S'$18M'
p1863
sg6
S'Tel Aviv'
p1864
sg15
I00
sg16
I50
sg20
I2008
sg65
F130000000.0
sg9
S'Software Developer'
p1865
sa(dp1866
g2
I3
sg3
S'Solocate'
p1867
sg5
I14
sg8
I484
sg9
S'Senior Developer'
p1868
sa(dp1869
g17
S'hardware'
p1870
sg2
I4
sg135
Nsg136
I1978
sg16
I86300
sg3
S'Intel'
p1871
sg5
I16
sg8
I485
sg13
S'$0'
p1872
sg15
I01
sg19
I00
sg20
I1968
sg9
S'Software Developer'
p1873
sa(dp1874
g2
I5
sg3
S'Check Point Software Technologies'
p1875
sg5
I15
sg8
I486
sg9
S'Account Manager'
p1876
sa(dp1877
g3
S'IDF'
p1878
sg5
I25
sg13
S'$0'
p1879
sg15
I00
sg16
Nsg8
I487
sg17
Nsg2
I6
sg19
I00
sg20
Nsg9
S'Product Manager'
p1880
sa(dp1881
g2
I1
sg3
S'HP Software'
p1882
sg5
I38
sg6
S'Israel'
p1883
sg8
I488
sg9
S'Manager'
p1884
sa(dp1885
g2
I2
sg3
S'Stealth Mode start-up'
p1886
sg5
I11
sg8
I489
sg9
S'CEO'
p1887
sa(dp1888
g2
I3
sg3
S'Jobookit Technologies Limited'
p1889
sg5
I8
sg8
I490
sg9
S'VP R&D and Chief Architect'
p1890
sa(dp1891
g2
I4
sg3
S'Prima Grid'
p1892
sg5
I47
sg8
I491
sg9
S'Founder, Director, Vice President of Research and Development'
p1893
sa(dp1894
g2
I5
sg3
S'Muhammad Zahalqa'
p1895
sg5
I40
sg8
I492
sg9
S'Senior Consultant and Software Team Leader'
p1896
sa(dp1897
g2
I6
sg3
S'airsphere'
p1898
sg5
I9
sg8
I493
sg9
S'Team Lead + Developer'
p1899
sa(dp1900
g2
I7
sg3
S'Level 8'
p1901
sg5
I17
sg8
I494
sg9
S'Head Developer + Team Lead'
p1902
sa(dp1903
g2
I8
sg3
S'Liraz Systems Ltd.'
p1904
sg5
I18
sg8
I495
sg9
S'Head developer'
p1905
sa(dp1906
g17
S'software'
p1907
sg2
I1
sg19
I01
sg3
S'Soluto'
p1908
sg5
I6
sg8
I496
sg13
S'$18M'
p1909
sg15
I00
sg16
I50
sg20
I2008
sg65
F130000000.0
sg9
S'Software Developer'
p1910
sa(dp1911
g17
S'software'
p1912
sg2
I2
sg19
I01
sg3
S'Leverate'
p1913
sg5
I7
sg8
I497
sg13
S'$0'
p1914
sg15
I00
sg16
I140
sg20
I2008
sg65
F12500000.0
sg9
S'Software Developer'
p1915
sa(dp1916
g2
I3
sg3
S'Israel Defense Forces'
p1917
sg5
I37
sg8
I498
sg9
S'Database Developer'
p1918
sa(dp1919
g2
I4
sg3
S'Tamir Dresher'
p1920
sg5
I37
sg8
I499
sg9
S'Software Developer'
p1921
sa(dp1922
g2
I5
sg3
S'Israel Defense Forces'
p1923
sg5
I28
sg8
I500
sg9
S'Programming Teacher'
p1924
sa(dp1925
g2
I1
sg3
S'Wadi Ventures'
p1926
sg5
I13
sg6
S'Tel Aviv'
p1927
sg8
I501
sg9
S'Associate'
p1928
sa(dp1929
g2
I2
sg3
S'Leading Edge Consultance'
p1930
sg5
I13
sg6
S'Tel Aviv'
p1931
sg8
I502
sg9
S'Analyst'
p1932
sa(dp1933
g3
S'Conduit'
p1934
sg5
I20
sg13
S'$110M'
p1935
sg15
I00
sg16
I215
sg8
I503
sg17
S'advertising'
p1936
sg2
I1
sg19
I00
sg20
I2005
sg6
S'Israel'
p1937
sg9
S'Web Team Leader (Wibiya)'
p1938
sa(dp1939
g3
S'Ariel Groman'
p1940
sg5
I13
sg13
S'$50M'
p1941
sg15
I00
sg16
Nsg8
I504
sg17
S'games_video'
p1942
sg2
I2
sg19
I00
sg20
I2003
sg6
S'Israel'
p1943
sg9
S'QA & Ops Manager'
p1944
sa(dp1945
g2
I3
sg3
S'Onyx Web Design / Freelance'
p1946
sg5
I21
sg8
I505
sg9
S'Web Developer'
p1947
sa(dp1948
g3
S'Daryl Smout'
p1949
sg5
I15
sg13
S'$0'
p1950
sg15
I00
sg16
Nsg8
I506
sg17
Nsg2
I4
sg19
I00
sg20
Nsg9
S'Game Designer'
p1951
sa(dp1952
g3
S'Efrat Cohen'
p1953
sg5
I26
sg13
S'$50M'
p1954
sg15
I00
sg16
Nsg8
I507
sg17
S'games_video'
p1955
sg2
I5
sg19
I00
sg20
I2003
sg9
S'Head of Customer Support and Community'
p1956
sa(dp1957
g2
I6
sg3
S'Peleg Samson'
p1958
sg5
I21
sg8
I508
sg9
S'Techincal Support Shift Manager and Team Leader'
p1959
sa(dp1960
g2
I1
sg3
S'Evolven (start-up in Rosh Haayin)'
p1961
sg5
I16
sg8
I509
sg9
S'Senior Java Web Developer'
p1962
sa(dp1963
g2
I2
sg3
S'IQTELL (start-up in Modiin)'
p1964
sg5
I10
sg8
I510
sg9
S'Senior Java Web & Mobile Developer'
p1965
sa(dp1966
g2
I3
sg3
S'Wix (start-up  in Tel-Aviv)'
p1967
sg5
I17
sg8
I511
sg9
S'Senior Java Web Developer'
p1968
sa(dp1969
g2
I4
sg3
S'Cell2Bet (start-up in Petach Tikva)'
p1970
sg5
I11
sg8
I512
sg9
S'Senior Java Web & Mobile Developer'
p1971
sa(dp1972
g17
S'web'
p1973
sg2
I5
sg135
Nsg136
I1998
sg16
Nsg3
S'Amdocs'
p1974
sg5
I30
sg8
I513
sg13
S'$0'
p1975
sg15
I01
sg19
I00
sg20
Nsg9
S'Java Web Framework Developer'
p1976
sa(dp1977
g2
I6
sg3
S'NDS Limited'
p1978
sg5
I14
sg8
I514
sg9
S'.NET developer'
p1979
sa(dp1980
g3
S'Kaltura'
p1981
sg5
I10
sg13
S'$69.1M'
p1982
sg15
I00
sg16
I160
sg8
I515
sg17
S'software'
p1983
sg2
I1
sg19
I00
sg20
I2006
sg6
S'location'
p1984
sg9
S'VP R&D'
p1985
sa(dp1986
g3
S'ooVoo'
p1987
sg5
I46
sg13
S'$0'
p1988
sg15
I00
sg16
I95
sg8
I516
sg17
S'web'
p1989
sg2
I2
sg19
I00
sg20
I2007
sg9
S'CTO'
p1990
sa(dp1991
g17
S'public_relations'
p1992
sg2
I3
sg19
I01
sg3
S'RADVISION'
p1993
sg5
I60
sg8
I517
sg13
S'$0'
p1994
sg15
I00
sg16
Nsg20
I1992
sg65
Nsg9
S'CTO'
p1995
sa(dp1996
g3
S'Sphera'
p1997
sg5
I31
sg13
S'$0'
p1998
sg15
I00
sg16
Nsg8
I518
sg17
Nsg2
I4
sg19
I00
sg20
Nsg9
S'CTO'
p1999
sa(dp2000
g2
I5
sg3
S'Elron Software'
p2001
sg5
I24
sg8
I519
sg9
S'CTO'
p2002
sa(dp2003
g2
I6
sg3
S'Elron Telesoft (NCC)'
p2004
sg5
I72
sg8
I520
sg9
S'CTO'
p2005
sa(dp2006
g3
S'NCC'
p2007
sg5
I108
sg13
S'$0'
p2008
sg15
I00
sg16
Nsg8
I521
sg17
Nsg2
I7
sg19
I00
sg20
Nsg9
S'Project manager, Division manager'
p2009
sa(dp2010
g3
S'IDF'
p2011
sg5
I72
sg13
S'$0'
p2012
sg15
I00
sg16
Nsg8
I522
sg17
Nsg2
I8
sg19
I00
sg20
Nsg9
S'programmer and system manager'
p2013
sa(dp2014
g2
I1
sg3
S'KivunHadash.com'
p2015
sg5
I20
sg8
I523
sg9
S'Senior Frontend Web Developer'
p2016
sa(dp2017
g2
I2
sg3
S'Answers.com'
p2018
sg5
I150
sg6
S'Jerusalem'
p2019
sg8
I524
sg9
S'Senior Software Engineer'
p2020
sa(dp2021
g3
S'Kaltura'
p2022
sg5
I63
sg13
S'$69.1M'
p2023
sg15
I00
sg16
I160
sg8
I525
sg17
S'software'
p2024
sg2
I1
sg19
I00
sg20
I2006
sg6
S'San Francisco Bay Area'
p2025
sg9
S'VP Project Management, Professional Services'
p2026
sa(dp2027
g3
S'Riskified'
p2028
sg5
I7
sg13
S'$1.65M'
p2029
sg15
I00
sg16
Nsg8
I526
sg17
S'ecommerce'
p2030
sg2
I1
sg19
I00
sg20
I2012
sg6
S'Tel Aviv'
p2031
sg9
S'Engineer and Co-founder'
p2032
sa(dp2033
g3
S'BillGuard'
p2034
sg5
I15
sg13
S'$13M'
p2035
sg15
I00
sg16
I12
sg8
I527
sg17
S'security'
p2036
sg2
I2
sg19
I00
sg20
I2010
sg9
S'Technologist'
p2037
sa(dp2038
g2
I3
sg3
S'Bezalel Academy of Art and Design'
p2039
sg5
I60
sg8
I528
sg9
S'Lecturer'
p2040
sa(dp2041
g2
I4
sg3
S'Kinetic Global Markets'
p2042
sg5
I29
sg8
I529
sg9
S'Head of Research Technologies'
p2043
sa(dp2044
g2
I5
sg3
S'monitor110.com'
p2045
sg5
I30
sg8
I530
sg9
S'Lead Developer'
p2046
sa(dp2047
g2
I6
sg3
S'MIT Media-Lab'
p2048
sg5
I22
sg8
I531
sg9
S'Researcher'
p2049
sa(dp2050
g2
I7
sg3
S'Nokia Research'
p2051
sg5
I4
sg8
I532
sg9
S'Researcher'
p2052
sa(dp2053
g2
I8
sg3
S'Oddcast Inc'
p2054
sg5
I27
sg8
I533
sg9
S'VP engineering'
p2055
sa(dp2056
g3
S'earthnoise'
p2057
sg5
I20
sg13
S'$0'
p2058
sg15
I00
sg16
Nsg8
I534
sg17
Nsg2
I9
sg19
I00
sg20
I1999
sg9
S'Senior Developer \\ Product Manager'
p2059
sa(dp2060
g2
I1
sg3
S'SAP Labs Israel'
p2061
sg5
I64
sg8
I535
sg9
S'Software Engineer'
p2062
sa(dp2063
g2
I2
sg3
S'Yavin Yeda LTD'
p2064
sg5
I74
sg8
I536
sg9
S'IT Manager'
p2065
sa(dp2066
g2
I3
sg3
S'Israeli defence force'
p2067
sg5
I24
sg8
I537
sg9
S"System & Officer's instructor"
p2068
sa(dp2069
g3
S'Conduit'
p2070
sg5
I6
sg13
S'$110M'
p2071
sg15
I00
sg16
I215
sg8
I538
sg17
S'advertising'
p2072
sg2
I1
sg19
I00
sg20
I2005
sg9
S'Developer'
p2073
sa(dp2074
g17
S'web'
p2075
sg2
I2
sg135
Nsg136
I1998
sg16
Nsg3
S'Amdocs'
p2076
sg5
I34
sg8
I539
sg13
S'$0'
p2077
sg15
I01
sg19
I00
sg20
Nsg9
S'Software Engineer'
p2078
sa(dp2079
g2
I1
sg3
S'Opinion Stage'
p2080
sg5
I24
sg8
I540
sg9
S'Founder and CEO'
p2081
sa(dp2082
g2
I2
sg3
S'Microsoft (Kidaro division)'
p2083
sg5
I12
sg8
I541
sg9
S'Senior Program Manager'
p2084
sa(dp2085
g2
I3
sg3
S'Kidaro (acquired by Microsoft)'
p2086
sg5
I12
sg8
I542
sg9
S'Head of Product Management'
p2087
sa(dp2088
g2
I4
sg3
S'Microsoft (Gteko division)'
p2089
sg5
I12
sg8
I543
sg9
S'Marketing Product Manager'
p2090
sa(dp2091
g2
I5
sg3
S'Gteko (acquired by Microsoft)'
p2092
sg5
I24
sg8
I544
sg9
S'Marketing Product Manager'
p2093
sa(dp2094
g2
I6
sg3
S'Check Point'
p2095
sg5
I48
sg8
I545
sg9
S'Development Team Leader'
p2096
sa(dp2097
g3
S'BigPanda'
p2098
sg5
I12
sg13
S'$0'
p2099
sg15
I00
sg16
Nsg8
I546
sg17
S'software'
p2100
sg2
I1
sg19
I00
sg20
Nsg9
S'Founder & CEO'
p2101
sa(dp2102
g2
I2
sg3
S'Sequoia Capital'
p2103
sg5
I72
sg8
I547
sg9
S'Principal'
p2104
sa(dp2105
g2
I3
sg3
S"Moody's Investor's Service"
p2106
sg5
I36
sg8
I548
sg9
S'Analyst'
p2107
sa(dp2108
g2
I1
sg3
S'lool ventures'
p2109
sg5
I27
sg8
I549
sg9
S'Head of Product'
p2110
sa(dp2111
g3
S'MyPermissions'
p2112
sg5
I21
sg13
S'$1M'
p2113
sg15
I00
sg16
I11
sg8
I550
sg17
S'security'
p2114
sg2
I2
sg19
I00
sg20
I2012
sg6
S'Israel'
p2115
sg9
S'Co-Founder, Product'
p2116
sa(dp2117
g2
I3
sg3
S'Gilad de Vries'
p2118
sg5
I44
sg8
I551
sg9
S'Director of Product Management'
p2119
sa(dp2120
g2
I4
sg3
S'SpeakingPal'
p2121
sg5
I24
sg8
I552
sg9
S'Co-Founder'
p2122
sa(dp2123
g2
I5
sg3
S'ram almog'
p2124
sg5
I49
sg8
I553
sg9
S'Head of Interactive Design'
p2125
sa(dp2126
g2
I6
sg3
S'Edusoft Ltd.'
p2127
sg5
I36
sg8
I554
sg9
S'Web Designer/Developer'
p2128
sa(dp2129
g2
I1
sg3
S'Ogiva Capital'
p2130
sg5
I20
sg6
S'Israel'
p2131
sg8
I555
sg9
S'General Partner'
p2132
sa(dp2133
g2
I2
sg3
S'Vered Levy-Ron'
p2134
sg5
I60
sg8
I556
sg9
S'Venture partner'
p2135
sa(dp2136
g2
I3
sg3
S'Adi Pundak-Mintz'
p2137
sg5
I84
sg8
I557
sg9
S'General Partner'
p2138
sa(dp2139
g2
I4
sg3
S'David Berechya'
p2140
sg5
I72
sg8
I558
sg9
S'Founder and CEO'
p2141
sa(dp2142
g2
I5
sg3
S'EDSL'
p2143
sg5
I12
sg8
I559
sg9
S'Board member'
p2144
sa(dp2145
g2
I6
sg3
S'Tzvika Friedman'
p2146
sg5
I120
sg8
I560
sg9
S'Director sales, marketing and BD'
p2147
sa(dp2148
g2
I7
sg3
S'Rubner David'
p2149
sg5
I120
sg8
I561
sg9
S'Senior director Strategy and BD'
p2150
sa(dp2151
g3
S'Comverse'
p2152
sg5
I19
sg13
S'$0'
p2153
sg15
I00
sg16
Nsg8
I562
sg17
S'software'
p2154
sg2
I1
sg19
I00
sg20
I1984
sg6
S'Israel'
p2155
sg9
S'Global services'
p2156
sa(dp2157
g17
S'web'
p2158
sg2
I2
sg135
Nsg136
I1998
sg16
Nsg3
S'Amdocs'
p2159
sg5
I33
sg8
I563
sg13
S'$0'
p2160
sg15
I01
sg19
I00
sg20
Nsg9
S'Software Infrastructure manager in Amdocs'
p2161
sa(dp2162
g2
I3
sg3
S'Amdocs Israel Ltd'
p2163
sg5
I60
sg8
I564
sg9
S'software Infrastructure project manager'
p2164
sa(dp2165
g17
S'web'
p2166
sg2
I4
sg135
Nsg136
I1998
sg16
Nsg3
S'Amdocs'
p2167
sg5
I148
sg8
I565
sg13
S'$0'
p2168
sg15
I01
sg19
I00
sg20
Nsg9
S'Infrastructure Project Manager'
p2169
sa(dp2170
g2
I1
sg3
S'AviG'
p2171
sg5
I24
sg8
I566
sg9
S'Independent Product Manager Consultant & Contractor'
p2172
sa(dp2173
g2
I2
sg3
S'Comtribute'
p2174
sg5
I12
sg8
I567
sg9
S'VP Products'
p2175
sa(dp2176
g2
I3
sg3
S'Mobixell Networks'
p2177
sg5
I12
sg8
I568
sg9
S'Director, Media Handling Product Management & Marketing'
p2178
sa(dp2179
g2
I4
sg3
S'Adamind'
p2180
sg5
I36
sg8
I569
sg9
S'Product Manager and Director of Product Management'
p2181
sa(dp2182
g2
I5
sg3
S'Philips'
p2183
sg5
I0
sg8
I570
sg9
S'Product Manager'
p2184
sa(dp2185
g2
I6
sg3
S'Nexus Telocation Systems'
p2186
sg5
I24
sg8
I571
sg9
S'Director of Product Management'
p2187
sa(dp2188
g2
I7
sg3
S'Nexus Telocation'
p2189
sg5
I36
sg8
I572
sg9
S'Project Manager'
p2190
sa(dp2191
g2
I1
sg3
S'Cellcom'
p2192
sg5
I24
sg8
I573
sg9
S'Oracle and SQL Server DBA'
p2193
sa(dp2194
g17
S'advertising'
p2195
sg2
I2
sg19
I01
sg3
S'MediaMind'
p2196
sg5
I12
sg8
I574
sg13
S'$38M'
p2197
sg6
S'Raanana'
p2198
sg15
I00
sg16
Nsg20
I1999
sg65
F517000000.0
sg9
S'SQL Server DBA'
p2199
sa(dp2200
g2
I3
sg3
S'NeuStar, Inc.'
p2201
sg5
I36
sg8
I575
sg9
S'Oracle DBA'
p2202
sa(dp2203
g2
I4
sg3
S'IEC'
p2204
sg5
I36
sg8
I576
sg9
S'Oracle DBA'
p2205
sa(dp2206
g2
I5
sg3
S'SPL Software'
p2207
sg5
I12
sg8
I577
sg9
S'Oracle DBA'
p2208
sa(dp2209
g2
I6
sg3
S'Dealigence'
p2210
sg5
I24
sg8
I578
sg9
S'Oracle DBA and Infra Team Leader'
p2211
sa(dp2212
g17
S'web'
p2213
sg2
I7
sg135
Nsg136
I1998
sg16
Nsg3
S'Amdocs'
p2214
sg5
I36
sg8
I579
sg13
S'$0'
p2215
sg15
I01
sg19
I00
sg20
Nsg9
S'Oracle DBA'
p2216
sa(dp2217
g3
S'Nana10'
p2218
sg5
I28
sg13
S'$0'
p2219
sg15
I00
sg16
Nsg8
I580
sg17
Nsg2
I1
sg19
I00
sg20
Nsg9
S'Gossip Section Editor'
p2220
sa(dp2221
g3
S'Nana10'
p2222
sg5
I35
sg13
S'$0'
p2223
sg15
I00
sg16
Nsg8
I581
sg17
Nsg2
I2
sg19
I00
sg20
Nsg9
S'TV Blogger'
p2224
sa(dp2225
g2
I3
sg3
S'Tzfanya.com'
p2226
sg5
I123
sg8
I582
sg9
S'Owner'
p2227
sa(dp2228
g2
I4
sg3
S'Atarim group'
p2229
sg5
I31
sg8
I583
sg9
S'Project manager'
p2230
sa(dp2231
g2
I5
sg3
S'FC Blogs'
p2232
sg5
I23
sg8
I584
sg9
S'TV Blogger'
p2233
sa(dp2234
g2
I6
sg3
S'Rating Magazine'
p2235
sg5
I11
sg8
I585
sg9
S'Soap columnist'
p2236
sa(dp2237
g2
I7
sg3
S'City Mouse'
p2238
sg5
I16
sg8
I586
sg9
S'Freelance writer'
p2239
sa(dp2240
g2
I8
sg3
S'Yoav Farhi'
p2241
sg5
I11
sg8
I587
sg9
S'Online PR manager'
p2242
sa(dp2243
g2
I9
sg3
S'Efrat Shaposhnik'
p2244
sg5
I53
sg8
I588
sg9
S'Content Editor & Project Manager'
p2245
sa(dp2246
g2
I10
sg3
S'Rating magazine'
p2247
sg5
I4
sg8
I589
sg9
S'Freelance writer'
p2248
sa(dp2249
g2
I1
sg3
S'Scene Interactive LTD'
p2250
sg5
I16
sg8
I590
sg9
S'Co-Founder'
p2251
sa(dp2252
g2
I2
sg3
S'Israel Defense Forces'
p2253
sg5
I13
sg8
I591
sg9
S'Application Framework & GIS Vice Manager'
p2254
sa(dp2255
g2
I3
sg3
S'Israel Defense Forces'
p2256
sg5
I22
sg8
I592
sg9
S'R&D Team Leader'
p2257
sa(dp2258
g2
I4
sg3
S'Israel Defense Forces'
p2259
sg5
I40
sg8
I593
sg9
S'Software Developer'
p2260
sa(dp2261
g17
S'finance'
p2262
sg2
I1
sg19
I01
sg3
S'PayPal'
p2263
sg5
I19
sg8
I594
sg13
S'$197M'
p2264
sg15
I00
sg16
I300000
sg20
I1998
sg65
F1500000000.0
sg9
S'SW Engineer'
p2265
sa(dp2266
g3
S'Ora Egozi-Barzilai'
p2267
sg5
I13
sg13
S'$0'
p2268
sg15
I00
sg16
Nsg8
I595
sg17
Nsg2
I2
sg19
I00
sg20
Nsg6
S'Herzliya'
p2269
sg9
S'Sr SW Developer'
p2270
sa(dp2271
g2
I3
sg3
S'Pursway Ltd'
p2272
sg5
I13
sg6
S'Herzliya, Israel'
p2273
sg8
I596
sg9
S'Core Lead Developer'
p2274
sa(dp2275
g2
I4
sg3
S'SAP Labs'
p2276
sg5
I33
sg6
S'Raanana, Israel'
p2277
sg8
I597
sg9
S'Software Developer'
p2278
sa(dp2279
g2
I5
sg3
S'HP Software'
p2280
sg5
I19
sg6
S'Yehud, Israel'
p2281
sg8
I598
sg9
S'SW Developer'
p2282
sa(dp2283
g3
S'Mercury'
p2284
sg5
I25
sg13
S'$0'
p2285
sg15
I00
sg16
Nsg8
I599
sg17
Nsg2
I6
sg19
I00
sg20
Nsg6
S'Yehud, Israel'
p2286
sg9
S'Performance Testing Engineer'
p2287
sa(dp2288
g2
I7
sg3
S'Storming Solutions'
p2289
sg5
I6
sg6
S'Tel Aviv, Israel'
p2290
sg8
I600
sg9
S'Software Developer'
p2291
sa(dp2292
g2
I1
sg3
S'lool ventures'
p2293
sg5
I32
sg8
I601
sg9
S'General Partner @ lool ventures'
p2294
sa(dp2295
g2
I2
sg3
S'Perion (NASDAQ:PERI) prior Incredimail'
p2296
sg5
I51
sg8
I602
sg9
S'Member of the Board of Directors'
p2297
sa(dp2298
g3
S'Tonara'
p2299
sg5
I24
sg13
S'$4.75M'
p2300
sg15
I00
sg16
I6
sg8
I603
sg17
S'music'
p2301
sg2
I3
sg19
I00
sg20
I2008
sg9
S'Investor & Advisor'
p2302
sa(dp2303
g3
S'Wibbitz'
p2304
sg5
I24
sg13
S'$2.3M'
p2305
sg15
I00
sg16
I15
sg8
I604
sg17
S'mobile'
p2306
sg2
I4
sg19
I00
sg20
I2011
sg9
S'Investor & Advisor'
p2307
sa(dp2308
g3
S'ZooZ'
p2309
sg5
I24
sg13
S'$3.5M'
p2310
sg15
I00
sg16
I15
sg8
I605
sg17
S'ecommerce'
p2311
sg2
I5
sg19
I00
sg20
I2010
sg9
S'Investor & Board member'
p2312
sa(dp2313
g3
S'RankAbove'
p2314
sg5
I34
sg13
S'$0'
p2315
sg15
I00
sg16
I35
sg8
I606
sg17
S'software'
p2316
sg2
I6
sg19
I00
sg20
I2007
sg9
S'Investor and Advisor'
p2317
sa(dp2318
g3
S'WinBuyer'
p2319
sg5
I50
sg13
S'$6.9M'
p2320
sg15
I00
sg16
Nsg8
I607
sg17
S'software'
p2321
sg2
I7
sg19
I00
sg20
I2005
sg9
S'Board Member'
p2322
sa(dp2323
g2
I8
sg3
S'The Gifts Project (Acquired by eBay)'
p2324
sg5
I30
sg8
I608
sg9
S'Advisory board member'
p2325
sa(dp2326
g17
S'web'
p2327
sg2
I9
sg135
Nsg136
I2009
sg16
I8000
sg3
S'AOL'
p2328
sg5
I48
sg8
I609
sg13
S'$1B'
p2329
sg15
I01
sg19
I00
sg20
I1985
sg9
S'VP and AOL Israel Country Manager'
p2330
sa(dp2331
g17
S'web'
p2332
sg2
I10
sg19
I01
sg3
S'Oren Ahronson'
p2333
sg5
I66
sg8
I610
sg13
S'$2.5M'
p2334
sg15
I00
sg16
I5
sg20
I2006
sg65
Nsg9
S'CEO, Yedda Inc. Vice President, AOL, LLC'
p2335
sa(dp2336
g2
I11
sg3
S'Dassault Systemes'
p2337
sg5
I72
sg8
I611
sg9
S'Exec VP Sales and Business Development SmarTeam'
p2338
sa(dp2339
g2
I12
sg3
S'Meryl Feinberg'
p2340
sg5
I117
sg8
I612
sg9
S'Exec. VP Sales and marketing'
p2341
sa(dp2342
g17
S'web'
p2343
sg2
I1
sg135
Nsg136
I1998
sg16
Nsg3
S'Einat Shimoni'
p2344
sg5
I212
sg8
I613
sg13
S'$0'
p2345
sg15
I01
sg19
I00
sg20
Nsg9
S'Enterprise Knowledge Architect'
p2346
sa(dp2347
g2
I2
sg3
S'Israel Knowledge Management Forum'
p2348
sg5
I48
sg8
I614
sg9
S'Management Board member'
p2349
sa(dp2350
g2
I3
sg3
S'Opus Publishing House'
p2351
sg5
I42
sg8
I615
sg9
S'Editor-in-Chief'
p2352
sa(dp2353
g2
I4
sg3
S'Teva Pharmaceutical Industries'
p2354
sg5
I60
sg8
I616
sg9
S'Information Systems Designer and Developer'
p2355
sa(dp2356
g17
Nsg2
I1
sg135
Nsg136
Nsg16
Nsg3
S'Perion'
p2357
sg5
I10
sg8
I617
sg13
S'$0'
p2358
sg6
S'Israel'
p2359
sg15
I01
sg19
I01
sg20
Nsg65
Nsg9
S'VP Marketing'
p2360
sa(dp2361
g3
S'SweetIM'
p2362
sg5
I25
sg13
S'$0'
p2363
sg15
I00
sg16
Nsg8
I618
sg17
S'web'
p2364
sg2
I2
sg19
I00
sg20
I2005
sg6
S"Ra'anana, Israel"
p2365
sg9
S'VP Online Marketing'
p2366
sa(dp2367
g2
I3
sg3
S'XtendMedia'
p2368
sg5
I43
sg8
I619
sg9
S'VP Search Marketing'
p2369
sa(dp2370
g2
I4
sg3
S'Sharon Ziv'
p2371
sg5
I18
sg8
I620
sg9
S'SEM Advertising Director'
p2372
sa(dp2373
g2
I5
sg3
S'Random-Logic Ltd. (888 Israel)'
p2374
sg5
I25
sg8
I621
sg9
S'SEM Account Executive'
p2375
sa(dp2376
g2
I6
sg3
S'Random-Logic Ltd. (888 Israel)'
p2377
sg5
I25
sg8
I622
sg9
S'Marketing Analyst'
p2378
sa(dp2379
g2
I1
sg3
S'Intel Corporation'
p2380
sg5
I24
sg6
S'Jerusalem, Israel'
p2381
sg8
I623
sg9
S'Software Engineer'
p2382
sa(dp2383
g3
S'Mobli'
p2384
sg5
I12
sg13
S'$86M'
p2385
sg15
I00
sg16
I15
sg8
I624
sg17
S'web'
p2386
sg2
I1
sg19
I00
sg20
I2010
sg9
S'iOS Developer'
p2387
sa(dp2388
g2
I2
sg3
S'AT&T Mobility'
p2389
sg5
I12
sg8
I625
sg9
S'iOS Developer'
p2390
sa(dp2391
g2
I3
sg3
S'Dalet Digital Media Systems'
p2392
sg5
I12
sg8
I626
sg9
S'Java Developer'
p2393
sa(dp2394
g3
S'iPhSoft'
p2395
sg5
I12
sg13
S'$0'
p2396
sg15
I00
sg16
Nsg8
I627
sg17
S'games_video'
p2397
sg2
I4
sg19
I00
sg20
Nsg9
S'iOS Developer'
p2398
sa(dp2399
g2
I1
sg3
S'The Gifts Project'
p2400
sg5
I3
sg6
S'Tel-Aviv'
p2401
sg8
I628
sg9
S'Software Developer'
p2402
sa(dp2403
g2
I2
sg3
S'The Gifts Project'
p2404
sg5
I5
sg8
I629
sg9
S'Software Developer'
p2405
sa(dp2406
g3
S'Modelity'
p2407
sg5
I6
sg13
S'$0'
p2408
sg15
I00
sg16
Nsg8
I630
sg17
Nsg2
I3
sg19
I00
sg20
Nsg9
S'Software Developer'
p2409
sa(dp2410
g3
S'IDF'
p2411
sg5
I13
sg13
S'$0'
p2412
sg15
I00
sg16
Nsg8
I631
sg17
Nsg2
I4
sg19
I00
sg20
Nsg9
S'Software Development Instructor'
p2413
sa(dp2414
g3
S'IDF'
p2415
sg5
I26
sg13
S'$0'
p2416
sg15
I00
sg16
Nsg8
I632
sg17
Nsg2
I5
sg19
I00
sg20
Nsg9
S'Software Developer'
p2417
sa(dp2418
g2
I1
sg3
S'.'
p2419
sg5
I3
sg8
I633
sg9
S'Freelance & Consulting'
p2420
sa(dp2421
g3
S'BillGuard'
p2422
sg5
I31
sg13
S'$13M'
p2423
sg15
I00
sg16
I12
sg8
I634
sg17
S'security'
p2424
sg2
I2
sg19
I00
sg20
I2010
sg9
S'Software Engineer'
p2425
sa(dp2426
g2
I3
sg3
S'IBM - XIV'
p2427
sg5
I14
sg8
I635
sg9
S'Software Engineer'
p2428
sa(dp2429
g3
S'IDF'
p2430
sg5
I47
sg13
S'$0'
p2431
sg15
I00
sg16
Nsg8
I636
sg17
Nsg2
I4
sg19
I00
sg20
Nsg9
S'Developer'
p2432
sa(dp2433
g2
I1
sg3
S'Commerce Sciences'
p2434
sg5
I12
sg8
I637
sg9
S'Founder, CEO'
p2435
sa(dp2436
g2
I2
sg3
S'MobileMonday Tel-Aviv'
p2437
sg5
I62
sg8
I638
sg9
S'Co-Founder'
p2438
sa(dp2439
g3
S'MoMinis'
p2440
sg5
I36
sg13
S'$15.4M'
p2441
sg15
I00
sg16
I30
sg8
I639
sg17
S'games_video'
p2442
sg2
I3
sg19
I00
sg20
I2008
sg9
S'Co-Founder, VP Business Development'
p2443
sa(dp2444
g3
S'IDF'
p2445
sg5
I36
sg13
S'$0'
p2446
sg15
I00
sg16
Nsg8
I640
sg17
Nsg2
I4
sg19
I00
sg20
Nsg9
S'R&D Team Leader'
p2447
sa(dp2448
g3
S'IDF'
p2449
sg5
I24
sg13
S'$0'
p2450
sg15
I00
sg16
Nsg8
I641
sg17
Nsg2
I5
sg19
I00
sg20
Nsg9
S'Mobile R&D'
p2451
sa(dp2452
g3
S'Alon Lubin'
p2453
sg5
I21
sg13
S'$40M'
p2454
sg15
I00
sg16
I24
sg8
I642
sg17
S'photo_video'
p2455
sg2
I1
sg19
I00
sg20
I2007
sg9
S'VP R&D'
p2456
sa(dp2457
g3
S'Taboola'
p2458
sg5
I25
sg13
S'$40M'
p2459
sg15
I00
sg16
I24
sg8
I643
sg17
S'photo_video'
p2460
sg2
I2
sg19
I00
sg20
I2007
sg9
S'Server Team Leader and Monetization Product Manager'
p2461
sa(dp2462
g3
S'Joseph Alfarero'
p2463
sg5
I29
sg13
S'$40M'
p2464
sg15
I00
sg16
I24
sg8
I644
sg17
S'photo_video'
p2465
sg2
I3
sg19
I00
sg20
I2007
sg9
S'Monetization Team Leader'
p2466
sa(dp2467
g3
S'zeev shteiman'
p2468
sg5
I36
sg13
S'$0'
p2469
sg15
I00
sg16
Nsg8
I645
sg17
Nsg2
I4
sg19
I00
sg20
Nsg9
S'Software Team Leader'
p2470
sa(dp2471
g3
S'IDF'
p2472
sg5
I36
sg13
S'$0'
p2473
sg15
I00
sg16
Nsg8
I646
sg17
Nsg2
I5
sg19
I00
sg20
Nsg9
S'Software Developer'
p2474
sa(dp2475
g2
I6
sg3
S'Telrad'
p2476
sg5
I10
sg8
I647
sg9
S'Software Programmer'
p2477
sa(dp2478
g2
I1
sg3
S'Stealth Startup'
p2479
sg5
I24
sg8
I648
sg9
S'Founder & CEO'
p2480
sa(dp2481
g2
I2
sg3
S'Audish'
p2482
sg5
I18
sg8
I649
sg9
S'Co-Founder & CTO'
p2483
sa(dp2484
g17
S'software'
p2485
sg2
I3
sg135
Nsg136
I1978
sg16
I388000
sg3
S'IBM'
p2486
sg5
I13
sg8
I650
sg13
S'$0'
p2487
sg15
I01
sg19
I00
sg20
I1896
sg9
S'SCSI Interface Team Leader'
p2488
sa(dp2489
g17
S'software'
p2490
sg2
I4
sg135
Nsg136
I1978
sg16
I388000
sg3
S'IBM'
p2491
sg5
I9
sg8
I651
sg13
S'$0'
p2492
sg15
I01
sg19
I00
sg20
I1896
sg9
S'Software developer'
p2493
sa(dp2494
g2
I5
sg3
S'xipus'
p2495
sg5
I16
sg8
I652
sg9
S'Founder & CEO'
p2496
sa(dp2497
g17
S'network_hosting'
p2498
sg2
I6
sg19
I01
sg3
S'XIV'
p2499
sg5
I0
sg8
I653
sg13
S'$0'
p2500
sg15
I00
sg16
Nsg20
Nsg65
F300000000.0
sg9
S'Co-founder'
p2501
sa(dp2502
g3
S'IDF'
p2503
sg5
I108
sg13
S'$0'
p2504
sg15
I00
sg16
Nsg8
I654
sg17
Nsg2
I7
sg19
I00
sg20
Nsg9
S'Talpion'
p2505
sa(dp2506
g17
S'enterprise'
p2507
sg2
I1
sg135
Nsg136
I1986
sg16
I85000
sg3
S'Ofir Manor'
p2508
sg5
I73
sg8
I655
sg13
S'$0'
p2509
sg15
I01
sg19
I00
sg20
I1977
sg9
S'Sales  & Business Development Senior Manager'
p2510
sa(dp2511
g2
I2
sg3
S'Matrix'
p2512
sg5
I48
sg8
I656
sg9
S'BMC Business Unit  Manager'
p2513
sa(dp2514
g2
I3
sg3
S'SCP'
p2515
sg5
I44
sg8
I657
sg9
S'Sales Manager'
p2516
sa(dp2517
g2
I4
sg3
S'Tevel software'
p2518
sg5
I50
sg8
I658
sg9
S'Sales & Support Manager'
p2519
sa(dp2520
g2
I1
sg3
S'Total-Football.org'
p2521
sg5
I10
sg6
S'Israel'
p2522
sg8
I659
sg9
S'CEO, Founder & Web Developer'
p2523
sa(dp2524
g3
S'Yarin Orfali'
p2525
sg5
I34
sg13
S'$0'
p2526
sg15
I00
sg16
Nsg8
I660
sg17
Nsg2
I2
sg19
I00
sg20
Nsg9
S'Web Developer'
p2527
sa(dp2528
g17
S'web'
p2529
sg2
I1
sg135
Nsg136
I1998
sg16
Nsg3
S'Amdocs'
p2530
sg5
I60
sg8
I661
sg13
S'$0'
p2531
sg15
I01
sg19
I00
sg20
Nsg9
S'SVP, president - Customer Business Group'
p2532
sa(dp2533
g17
S'web'
p2534
sg2
I2
sg135
Nsg136
I1998
sg16
Nsg3
S'Amdocs'
p2535
sg5
I25
sg8
I662
sg13
S'$0'
p2536
sg15
I01
sg19
I00
sg20
Nsg9
S'Division President'
p2537
sa(dp2538
g2
I3
sg3
S'Amdcos'
p2539
sg5
I11
sg8
I663
sg9
S'Business Unit President'
p2540
sa(dp2541
g17
S'web'
p2542
sg2
I4
sg135
Nsg136
I1998
sg16
Nsg3
S'Amdocs'
p2543
sg5
I13
sg8
I664
sg13
S'$0'
p2544
sg15
I01
sg19
I00
sg20
Nsg9
S'VP - Customer Business Executive'
p2545
sa(dp2546
g2
I1
sg3
S'Maya Sagi Grossman'
p2547
sg5
I84
sg8
I665
sg9
S'Founder and CEO'
p2548
sa(dp2549
g2
I2
sg3
S'Avihay Feld'
p2550
sg5
I0
sg8
I666
sg9
S'Director of Social Marketing, Promotions, and Community'
p2551
sa(dp2552
g2
I3
sg3
S'ICQ Ltd.'
p2553
sg5
I48
sg8
I667
sg9
S'Manager of  Marketing and Promotions'
p2554
sa(dp2555
g2
I4
sg3
S'ISRAEL RELOCATION FORUM'
p2556
sg5
I12
sg8
I668
sg9
S'Marcom Manager'
p2557
sa(dp2558
g2
I5
sg3
S'PARTNERS500 , GLOBAL PARTNERSHIPS FOR HIGH-TECH'
p2559
sg5
I12
sg8
I669
sg9
S'Content Manager'
p2560
sa(dp2561
g2
I6
sg3
S'THE AMERICA-ISRAEL CHAMBER OF COMMERCE'
p2562
sg5
I24
sg8
I670
sg9
S'Marketing/Public Relations Manager'
p2563
sa(dp2564
g2
I1
sg3
S'OSEM Nestle'
p2565
sg5
I8
sg6
S'Shoham'
p2566
sg8
I671
sg9
S'Marketing Director'
p2567
sa(dp2568
g2
I2
sg3
S'Bare-food'
p2569
sg5
I16
sg6
S'Ram at Efal, Haella 9'
p2570
sg8
I672
sg9
S'VP Marketing&Strategy'
p2571
sa(dp2572
g2
I3
sg3
S'Hogla - Kimberly'
p2573
sg5
I16
sg6
S'Hogla - Kimberly Clark'
p2574
sg8
I673
sg9
S'Divisional Marketing Manager'
p2575
sa(dp2576
g2
I4
sg3
S'Shaul Pryluk'
p2577
sg5
I13
sg6
S'Hogla - Kimberly Clark'
p2578
sg8
I674
sg9
S'Business Development Manager'
p2579
sa(dp2580
g2
I5
sg3
S'Tzippi Hammer'
p2581
sg5
I10
sg6
S'Hogla - Kimberly Clark'
p2582
sg8
I675
sg9
S'Senior Brand Manager - Home Care'
p2583
sa(dp2584
g2
I6
sg3
S'Kimberly-Clark'
p2585
sg5
I30
sg6
S'Hogla- Kimberly Clark'
p2586
sg8
I676
sg9
S"Brand manager - 'Nikol'"
p2587
sa(dp2588
g2
I7
sg3
S'Euro RSCG - Tel Aviv'
p2589
sg5
I21
sg8
I677
sg9
S'Account manager'
p2590
sa(dp2591
g2
I1
sg3
S'Fiverr (Fiverr.com)'
p2592
sg5
I0
sg6
S'New York City'
p2593
sg8
I678
sg9
S'VP Marketing'
p2594
sa(dp2595
g2
I2
sg3
S'ER Accelerator'
p2596
sg5
I12
sg6
S'New York City'
p2597
sg8
I679
sg9
S'Digital Marketing Mentor'
p2598
sa(dp2599
g2
I3
sg3
S'J.Crew'
p2600
sg5
I12
sg6
S'New York City'
p2601
sg8
I680
sg9
S'Head of Digital Marketing'
p2602
sa(dp2603
g2
I4
sg3
S'Gilt Groupe'
p2604
sg5
I24
sg6
S'New York City'
p2605
sg8
I681
sg9
S'Senior Director of Marketing'
p2606
sa(dp2607
g2
I5
sg3
S'Trunkt (acquired by Etsy)'
p2608
sg5
I48
sg6
S'New York City'
p2609
sg8
I682
sg9
S'Co-Founder and CMO'
p2610
sa(dp2611
g2
I6
sg3
S'Michael Bloomberg Exploratory Presidential Campaign'
p2612
sg5
I12
sg6
S'New York City'
p2613
sg8
I683
sg9
S'Digital Marketing Strategist'
p2614
sa(dp2615
g2
I7
sg3
S'Ayesha Ahmad Consulting'
p2616
sg5
I12
sg6
S'New York City'
p2617
sg8
I684
sg9
S'Marketing Consultant'
p2618
sa(dp2619
g3
S'Oddcast'
p2620
sg5
I12
sg13
S'$4M'
p2621
sg15
I00
sg16
I65
sg8
I685
sg17
S'web'
p2622
sg2
I8
sg19
I00
sg20
I1999
sg6
S'NYC'
p2623
sg9
S'Director of Marketing'
p2624
sa(dp2625
g2
I9
sg3
S'Merrill Lynch'
p2626
sg5
I0
sg6
S'Hong Kong and Indonesia'
p2627
sg8
I686
sg9
S'Equity Research Analyst'
p2628
sa(dp2629
g2
I10
sg3
S'Economist Intelligence Unit'
p2630
sg5
I72
sg6
S'Singapore and Cambridge, MA'
p2631
sg8
I687
sg9
S'Director of Market Research'
p2632
sa(dp2633
g2
I1
sg3
S'Global Entrepreneurship Week'
p2634
sg5
I27
sg6
S'Israel'
p2635
sg8
I688
sg9
S'Chairperson'
p2636
sa(dp2637
g2
I2
sg3
S'Tel Aviv University, Faculty of Engineering'
p2638
sg5
I96
sg8
I689
sg9
S'Adjunct Lecturer'
p2639
sa(dp2640
g2
I3
sg3
S'Technion - Israel Institute of Technology'
p2641
sg5
I192
sg8
I690
sg9
S'Adjunct Lecturer'
p2642
sa(dp2643
g2
I4
sg3
S'Herzliya Interdisciplinary Center, Efi Arazi School of Computer Science'
p2644
sg5
I192
sg8
I691
sg9
S'Adjunct Lecturer'
p2645
sa(dp2646
g2
I5
sg3
S'Ed Mlavsky'
p2647
sg5
I213
sg6
S'Israel'
p2648
sg8
I692
sg9
S'Executive Director'
p2649
sa(dp2650
g2
I6
sg3
S'Global Entrepreneurship Week (GEW) Israel'
p2651
sg5
I19
sg8
I693
sg9
S'Co-Chair'
p2652
sa(dp2653
g2
I7
sg3
S'TISOM'
p2654
sg5
I12
sg8
I694
sg9
S'Adjunct Lecturer, Entrepreneurship'
p2655
sa(dp2656
g2
I8
sg3
S'Steps Investments in Technology, IBI'
p2657
sg5
I12
sg6
S'Tel Aviv, Israel'
p2658
sg8
I695
sg9
S'Analyst'
p2659
sa(dp2660
g2
I9
sg3
S'Daniel Ben-Ezri'
p2661
sg5
I24
sg8
I696
sg9
S'Software Engineer'
p2662
sa(dp2663
g2
I10
sg3
S'Daisy Systems'
p2664
sg5
I24
sg8
I697
sg9
S'Software Engineer'
p2665
sa(dp2666
g2
I1
sg3
S'HP Software'
p2667
sg5
I12
sg8
I698
sg9
S'HP Software Hybrid IT R&D'
p2668
sa(dp2669
g2
I2
sg3
S'AppInMob'
p2670
sg5
I0
sg8
I699
sg9
S'owner'
p2671
sa(dp2672
g2
I3
sg3
S'Ness Technologies'
p2673
sg5
I47
sg8
I700
sg9
S'Web solutions architect'
p2674
sa(dp2675
g2
I4
sg3
S'Muhammad Zahalqa'
p2676
sg5
I15
sg8
I701
sg9
S'Web Team Leader'
p2677
sa(dp2678
g2
I5
sg3
S'Yaniv Shnaper'
p2679
sg5
I80
sg8
I702
sg9
S'J2EE developer and web  administrator'
p2680
sa(dp2681
g2
I1
sg3
S'Ex Libris'
p2682
sg5
I39
sg8
I703
sg9
S'Corporate VP, Head of RM Solutions Business Unit'
p2683
sa(dp2684
g2
I2
sg3
S'NICE Systems'
p2685
sg5
I36
sg8
I704
sg9
S'Head of Global Integrated Marketing'
p2686
sa(dp2687
g2
I3
sg3
S'NICE Systems'
p2688
sg5
I48
sg8
I705
sg9
S'Director of Product Marketing, Americas'
p2689
sa(dp2690
g2
I4
sg3
S'NICE Systems'
p2691
sg5
I48
sg8
I706
sg9
S'Sr. Product Marketing Manager'
p2692
sa(dp2693
g2
I5
sg3
S'Israeli Defense Forces (IDF)'
p2694
sg5
I24
sg8
I707
sg9
S'Dir of Software Development'
p2695
sa(dp2696
g2
I6
sg3
S'Israeli Defense Foreces (IDF)'
p2697
sg5
I36
sg8
I708
sg9
S'Software Development Group Manager'
p2698
sa(dp2699
g2
I1
sg3
S'United States of America'
p2700
sg5
I53
sg8
I709
sg9
S'President'
p2701
sa(dp2702
g2
I2
sg3
S'US Senate (IL-D)'
p2703
sg5
I47
sg8
I710
sg9
S'US Senator'
p2704
sa(dp2705
g2
I3
sg3
S'Illinois State Senate'
p2706
sg5
I84
sg8
I711
sg9
S'State Senator'
p2707
sa(dp2708
g2
I4
sg3
S'University of Chicago Law School'
p2709
sg5
I132
sg8
I712
sg9
S'Senior Lecturer in Law'
p2710
sa(dp2711
g2
I1
sg3
S'Mobileye'
p2712
sg5
I25
sg8
I713
sg9
S'General Objecet Detection Group Leader'
p2713
sa(dp2714
g2
I2
sg3
S'Mobileye'
p2715
sg5
I36
sg8
I714
sg9
S'Algorithm Group Leader'
p2716
sa(dp2717
g2
I3
sg3
S'Mobileye'
p2718
sg5
I36
sg8
I715
sg9
S'Algorithms Developer'
p2719
sa(dp2720
g2
I4
sg3
S'BAE Systems Rokar'
p2721
sg5
I12
sg8
I716
sg9
S'Final project in Computer Engineering'
p2722
sa(dp2723
g2
I1
sg3
S'Yaniv for iOS'
p2724
sg5
I36
sg8
I717
sg9
S'Producer of Yaniv for iPhone'
p2725
sa(dp2726
g17
Nsg2
I2
sg19
I01
sg3
S'Traiana'
p2727
sg5
I29
sg8
I718
sg13
S'$15M'
p2728
sg15
I00
sg16
Nsg20
I2000
sg65
F238000000.0
sg9
S'Team Leader - Web and UI'
p2729
sa(dp2730
g17
Nsg2
I3
sg19
I01
sg3
S'Traiana'
p2731
sg5
I62
sg8
I719
sg13
S'$15M'
p2732
sg6
S'Tel Aviv'
p2733
sg15
I00
sg16
Nsg20
I2000
sg65
F238000000.0
sg9
S'Client side and UI Engineer'
p2734
sa(dp2735
g3
S'Indomite'
p2736
sg5
I24
sg13
S'$0'
p2737
sg15
I00
sg16
Nsg8
I720
sg17
Nsg2
I4
sg19
I00
sg20
Nsg9
S'CTO, Founder'
p2738
sa(dp2739
g3
S'Creopolis'
p2740
sg5
I10
sg13
S'$0'
p2741
sg15
I00
sg16
Nsg8
I721
sg17
Nsg2
I5
sg19
I00
sg20
Nsg9
S'UI and Web Developer'
p2742
sa(dp2743
g2
I6
sg3
S'Mamram'
p2744
sg5
I36
sg8
I722
sg9
S'Software Development'
p2745
sa(dp2746
g2
I7
sg3
S'MAMRAM, IDF'
p2747
sg5
I36
sg8
I723
sg9
S'UI Programmer'
p2748
sa(dp2749
g3
S'Win'
p2750
sg5
I13
sg13
S'$0'
p2751
sg15
I00
sg16
Nsg8
I724
sg17
Nsg2
I1
sg19
I00
sg20
Nsg9
S'CEO'
p2752
sa(dp2753
g3
S'Crossrider'
p2754
sg5
I19
sg13
S'$0'
p2755
sg15
I00
sg16
I15
sg8
I725
sg17
S'software'
p2756
sg2
I2
sg19
I00
sg20
I2010
sg9
S'Angel Investor'
p2757
sa(dp2758
g3
S'SABI'
p2759
sg5
I46
sg13
S'$0'
p2760
sg15
I00
sg16
I5
sg8
I726
sg17
S'games_video'
p2761
sg2
I3
sg19
I00
sg20
I2008
sg9
S'Angel Investor'
p2762
sa(dp2763
g3
S'Smarkets'
p2764
sg5
I46
sg13
S'$2.71M'
p2765
sg15
I00
sg16
I15
sg8
I727
sg17
S'sports'
p2766
sg2
I4
sg19
I00
sg20
I2008
sg9
S'Angel Investor'
p2767
sa(dp2768
g17
S'games_video'
p2769
sg2
I5
sg19
I01
sg3
S'Mytopia'
p2770
sg5
I13
sg8
I728
sg13
S'$3.5M'
p2771
sg15
I00
sg16
I29
sg20
I2007
sg65
F18000000.0
sg9
S'CEO'
p2772
sa(dp2773
g2
I6
sg3
S'Amuso.com'
p2774
sg5
I37
sg8
I729
sg9
S'Co-founder & CEO'
p2775
sa(dp2776
g17
S'web'
p2777
sg2
I7
sg135
Nsg136
I1996
sg16
I13600
sg3
S'Yahoo!'
p2778
sg5
I7
sg8
I730
sg13
S'$6.8M'
p2779
sg15
I01
sg19
I00
sg20
I1994
sg9
S'Corporate Development'
p2780
sa(dp2781
g2
I8
sg3
S'Sony Broadband Entertainment'
p2782
sg5
I6
sg8
I731
sg9
S'Corporate Development'
p2783
sa(dp2784
g2
I9
sg3
S'Israel Defense Forces'
p2785
sg5
I16
sg8
I732
sg9
S'Infantry Paratroop Battalion'
p2786
sa(dp2787
g2
I10
sg3
S'Morgan Stanley'
p2788
sg5
I39
sg8
I733
sg9
S'Mergers & Acquisitions'
p2789
sa(dp2790
g2
I11
sg3
S'The White House'
p2791
sg5
I6
sg8
I734
sg9
S'National Economic Council'
p2792
sa(dp2793
g2
I1
sg3
S'Ex Libris'
p2794
sg5
I13
sg8
I735
sg9
S'Cloud Operations Director'
p2795
sa(dp2796
g3
S'Ilan Arjuan'
p2797
sg5
I17
sg13
S'$0'
p2798
sg15
I00
sg16
Nsg8
I736
sg17
S'software'
p2799
sg2
I2
sg19
I00
sg20
I1984
sg9
S'Emerging Market VAS Delivery Section Leader'
p2800
sa(dp2801
g3
S'Suchi Fullerton'
p2802
sg5
I26
sg13
S'$0'
p2803
sg15
I00
sg16
Nsg8
I737
sg17
S'software'
p2804
sg2
I3
sg19
I00
sg20
I1984
sg9
S'RT Billing Delivery and Support Manager'
p2805
sa(dp2806
g3
S'Erez Strod'
p2807
sg5
I18
sg13
S'$0'
p2808
sg15
I00
sg16
Nsg8
I738
sg17
S'software'
p2809
sg2
I4
sg19
I00
sg20
I1984
sg9
S'Regional Operation Manager'
p2810
sa(dp2811
g3
S'Adi Lutchinsky'
p2812
sg5
I35
sg13
S'$0'
p2813
sg15
I00
sg16
Nsg8
I739
sg17
S'software'
p2814
sg2
I5
sg19
I00
sg20
I1984
sg9
S'Service Project team and India Deployment & Support group manager'
p2815
sa(dp2816
g3
S'Comverse'
p2817
sg5
I25
sg13
S'$0'
p2818
sg15
I00
sg16
Nsg8
I740
sg17
S'software'
p2819
sg2
I6
sg19
I00
sg20
I1984
sg9
S'WAP (Wireless Access Protocol) testing team leader'
p2820
sa(dp2821
g2
I1
sg3
S'Jody Eldred'
p2822
sg5
I24
sg8
I741
sg9
S'Kata Brand Manager'
p2823
sa(dp2824
g2
I2
sg3
S'Jim MacFadden'
p2825
sg5
I12
sg8
I742
sg9
S'Training & Business Intelligence Manager'
p2826
sa(dp2827
g2
I3
sg3
S'Heidi Tobin'
p2828
sg5
I48
sg8
I743
sg9
S'Product, marketing and training management'
p2829
sa(dp2830
g2
I4
sg3
S'Elisabetta (Isabel) Cartoni'
p2831
sg5
I24
sg8
I744
sg9
S'Sales management'
p2832
sa(dp2833
g2
I5
sg3
S'Kata Bags Ltd.'
p2834
sg5
I48
sg8
I745
sg9
S'Product & Graphic Designer'
p2835
sa(dp2836
g17
S'enterprise'
p2837
sg2
I1
sg135
Nsg136
I1998
sg16
Nsg3
S'SAP'
p2838
sg5
I21
sg8
I746
sg13
S'$0'
p2839
sg15
I01
sg19
I00
sg20
I1972
sg9
S'Product Owner'
p2840
sa(dp2841
g2
I2
sg3
S'SAP Labs'
p2842
sg5
I21
sg8
I747
sg9
S'Scrum Master'
p2843
sa(dp2844
g17
S'enterprise'
p2845
sg2
I3
sg135
Nsg136
I1998
sg16
Nsg3
S'SAP'
p2846
sg5
I45
sg8
I748
sg13
S'$0'
p2847
sg15
I01
sg19
I00
sg20
I1972
sg9
S'Senior Developer'
p2848
sa(dp2849
g2
I4
sg3
S'UGS - Tecnomatix'
p2850
sg5
I23
sg8
I749
sg9
S'Application Engineer'
p2851
sa(dp2852
g2
I1
sg3
S'Manfrotto Bags'
p2853
sg5
I24
sg8
I750
sg9
S'R&D industrial designer'
p2854
sa(dp2855
g2
I2
sg3
S'freelancer'
p2856
sg5
I48
sg6
S'tel aviv, Israel'
p2857
sg8
I751
sg9
S'Freelance Industrial Designer'
p2858
sa(dp2859
g2
I1
sg3
S'lool ventures'
p2860
sg5
I13
sg6
S'Israel'
p2861
sg8
I752
sg9
S'Growth Hacker'
p2862
sa(dp2863
g2
I2
sg3
S'Mapped In Israel'
p2864
sg5
I16
sg6
S'Start-Up Nation'
p2865
sg8
I753
sg9
S'Creator'
p2866
sa(dp2867
g2
I3
sg3
S'Israel Defense Forces'
p2868
sg5
I19
sg8
I754
sg9
S'Soldier'
p2869
sa(dp2870
g2
I4
sg3
S'Business Insider'
p2871
sg5
I33
sg8
I755
sg9
S'Contributor'
p2872
sa(dp2873
g3
S'MySchoolHelp'
p2874
sg5
I25
sg13
S'$0'
p2875
sg15
I00
sg16
I2
sg8
I756
sg17
S'other'
p2876
sg2
I5
sg19
I00
sg20
Nsg9
S'Founder'
p2877
sa(dp2878
g17
S'web'
p2879
sg2
I6
sg19
I01
sg3
S'Dror Ceder'
p2880
sg5
I6
sg8
I757
sg13
S'$2M'
p2881
sg6
S'Israel'
p2882
sg15
I00
sg16
Nsg20
I2008
sg65
F45000000.0
sg9
S'Marketing'
p2883
sa(dp2884
g3
S'Don Power, Author, Social Media Speaker'
p2885
sg5
I31
sg13
S'$0'
p2886
sg15
I00
sg16
I13
sg8
I758
sg17
S'other'
p2887
sg2
I7
sg19
I00
sg20
I2010
sg9
S'Founder'
p2888
sa(dp2889
g3
S'Eran Savir'
p2890
sg5
I2
sg13
S'$1M'
p2891
sg15
I00
sg16
I20
sg8
I759
sg17
S'web'
p2892
sg2
I8
sg19
I00
sg20
I2007
sg9
S'Marketing'
p2893
sa(dp2894
g2
I9
sg3
S"Jason O'Neill"
p2895
sg5
I21
sg8
I760
sg9
S'Founder'
p2896
sa(dp2897
g3
S'Dafna Penn'
p2898
sg5
I2
sg13
S'$1M'
p2899
sg15
I00
sg16
I20
sg8
I761
sg17
S'web'
p2900
sg2
I10
sg19
I00
sg20
I2007
sg9
S'Intern'
p2901
sa(dp2902
g2
I1
sg3
S'EAR Studio Inc.'
p2903
sg5
I240
sg8
I762
sg9
S'Owner'
p2904
sa(dp2905
g2
I1
sg3
S'Change.org'
p2906
sg5
I4
sg6
S'New York'
p2907
sg8
I763
sg9
S'Vice President of Communications'
p2908
sa(dp2909
g2
I2
sg3
S'Change.org'
p2910
sg5
I7
sg8
I764
sg9
S'Managing Director of Global Communications'
p2911
sa(dp2912
g2
I3
sg3
S'Change.org'
p2913
sg5
I13
sg8
I765
sg9
S'Director of Communications'
p2914
sa(dp2915
g2
I4
sg3
S'Change.org'
p2916
sg5
I9
sg8
I766
sg9
S'Editor'
p2917
sa(dp2918
g2
I5
sg3
S'Colors Magazine'
p2919
sg5
I36
sg8
I767
sg9
S'Editor'
p2920
sa(dp2921
g2
I6
sg3
S'Guardian Group'
p2922
sg5
I12
sg8
I768
sg9
S'Features Writer'
p2923
sa(dp2924
g2
I7
sg3
S'Telegraph Media Group'
p2925
sg5
I12
sg8
I769
sg9
S'Africa Correspondent'
p2926
sa(dp2927
g3
S'Trustwave'
p2928
sg5
I24
sg13
S'$24.5M'
p2929
sg15
I00
sg16
I1100
sg8
I770
sg17
S'software'
p2930
sg2
I1
sg19
I00
sg20
I1995
sg9
S'Senior software engineer'
p2931
sa(dp2932
g3
S'B-Obvious'
p2933
sg5
I62
sg13
S'$1M'
p2934
sg15
I00
sg16
Nsg8
I771
sg17
S'network_hosting'
p2935
sg2
I2
sg19
I00
sg20
I2005
sg9
S'Senior software engineer'
p2936
sa(dp2937
g2
I1
sg3
S'HP Software'
p2938
sg5
I14
sg6
S'Yehud, Israel'
p2939
sg8
I772
sg9
S'R&D Director'
p2940
sa(dp2941
g2
I2
sg3
S'HP Software (Mercury)'
p2942
sg5
I50
sg8
I773
sg9
S'Software Group Manager'
p2943
sa(dp2944
g17
S'enterprise'
p2945
sg2
I3
sg135
Nsg136
I1998
sg16
Nsg3
S'Yaron Goldberg'
p2946
sg5
I25
sg8
I774
sg13
S'$0'
p2947
sg15
I01
sg19
I00
sg20
I1972
sg9
S'Manager'
p2948
sa(dp2949
g2
I4
sg3
S'Kontera technologies'
p2950
sg5
I73
sg8
I775
sg9
S'VP R&D'
p2951
sa(dp2952
g2
I5
sg3
S'Mercury Interactive'
p2953
sg5
I60
sg8
I776
sg9
S'SW developer'
p2954
sa(dp2955
g3
S'IDF'
p2956
sg5
I64
sg13
S'$0'
p2957
sg15
I00
sg16
Nsg8
I777
sg17
Nsg2
I6
sg19
I00
sg20
Nsg9
S'Captain'
p2958
sa(dp2959
g2
I1
sg3
S'ravello systems'
p2960
sg5
I24
sg8
I778
sg9
S'Co-Founder, Chairman & President'
p2961
sa(dp2962
g2
I2
sg3
S'Red Hat'
p2963
sg5
I24
sg8
I779
sg9
S'VP Business Development'
p2964
sa(dp2965
g2
I3
sg3
S'Qumranet'
p2966
sg5
I36
sg8
I780
sg9
S'CEO, Co-Founder'
p2967
sa(dp2968
g2
I4
sg3
S'Cisco Systems'
p2969
sg5
I60
sg8
I781
sg9
S'Dir. Eng.'
p2970
sa(dp2971
g17
S'public_relations'
p2972
sg2
I5
sg19
I01
sg3
S'Pentacom'
p2973
sg5
I24
sg8
I782
sg13
S'$0'
p2974
sg15
I00
sg16
Nsg20
I1998
sg65
Nsg9
S'CEO, Founder'
p2975
sa(dp2976
g2
I6
sg3
S'MayaLee Consulting'
p2977
sg5
I72
sg8
I783
sg9
S'President, Founder'
p2978
sa(dp2979
g2
I7
sg3
S'Amdahl'
p2980
sg5
I24
sg8
I784
sg9
S'Engineer'
p2981
sa(dp2982
g2
I8
sg3
S'Simulog'
p2983
sg5
I36
sg8
I785
sg9
S'Engineer'
p2984
sa(dp2985
g2
I9
sg3
S'Tadiran Telecom'
p2986
sg5
I24
sg8
I786
sg9
S'Engineer'
p2987
sa(dp2988
g2
I1
sg3
S'Yael Software'
p2989
sg5
I60
sg8
I787
sg9
S'Developer'
p2990
sa(dp2991
g2
I2
sg3
S'Israel Defense Forces'
p2992
sg5
I23
sg8
I788
sg9
S'Programmer'
p2993
sa(dp2994
g2
I1
sg3
S'Ein-Gedi'
p2995
sg5
I35
sg8
I789
sg9
S'IT Manager'
p2996
sa(dp2997
g3
S'Bizzabo'
p2998
sg5
I34
sg13
S'$1.5M'
p2999
sg15
I00
sg16
I6
sg8
I790
sg17
S'mobile'
p3000
sg2
I1
sg19
I00
sg20
I2011
sg9
S'Co-Founder & Chief Product Officer'
p3001
sa(dp3002
g2
I2
sg3
S'Elbit Systems Ltd.'
p3003
sg5
I35
sg8
I791
sg9
S'Team member at Operational Requirements and Human Factor Engineering'
p3004
sa(dp3005
g2
I3
sg3
S'TEDxTelAviv'
p3006
sg5
I4
sg8
I792
sg9
S'Tech Team'
p3007
sa(dp3008
g2
I4
sg3
S'Israeli Air Force'
p3009
sg5
I96
sg8
I793
sg9
S'Officer'
p3010
sa(dp3011
g2
I1
sg3
S'Madanes Group'
p3012
sg5
I44
sg8
I794
sg9
S'Business Development & Marketing Director'
p3013
sa(dp3014
g2
I2
sg3
S'Madanes Group'
p3015
sg5
I17
sg8
I795
sg9
S'Chairman P.A.'
p3016
sa(dp3017
g2
I3
sg3
S'Naschitz, Brandes & Co.'
p3018
sg5
I42
sg8
I796
sg9
S'Lawyer'
p3019
sa(dp3020
g2
I4
sg3
S'Daphna Beer-Gabel Rubin'
p3021
sg5
I27
sg8
I797
sg9
S'Foreign Exchange Markets Securities Trader'
p3022
sa(dp3023
g2
I1
sg3
S'Teva Pharmaceutical Industries Ltd.'
p3024
sg5
I42
sg8
I798
sg9
S'Senior Manager'
p3025
sa(dp3026
g2
I2
sg3
S'Teva Pharmaceuticals'
p3027
sg5
I27
sg8
I799
sg9
S'Global Program Manager'
p3028
sa(dp3029
g2
I3
sg3
S'Teva Pharmaceuticals'
p3030
sg5
I65
sg8
I800
sg9
S'Project Manager'
p3031
sa(dp3032
g2
I4
sg3
S'Anecdots'
p3033
sg5
I20
sg8
I801
sg9
S'CEO and co-founder'
p3034
sa(dp3035
g2
I5
sg3
S'Z plusplus Systems and Communication  Ltd.'
p3036
sg5
I36
sg8
I802
sg9
S'Co-Founder and VP R&D'
p3037
sa(dp3038
g2
I1
sg3
S'Foto Master'
p3039
sg5
I11
sg8
I803
sg9
S'Co-Founder & CEO'
p3040
sa(dp3041
g2
I2
sg3
S'vCatalog'
p3042
sg5
I11
sg8
I804
sg9
S'Founder'
p3043
sa(dp3044
g2
I3
sg3
S'RSA The Security Division of EMC'
p3045
sg5
I5
sg6
S'Israel'
p3046
sg8
I805
sg9
S'Research And Development Consultant'
p3047
sa(dp3048
g3
S'Kaltura'
p3049
sg5
I39
sg13
S'$69.1M'
p3050
sg15
I00
sg16
I160
sg8
I806
sg17
S'software'
p3051
sg2
I4
sg19
I00
sg20
I2006
sg9
S'Director - Development Team Lead'
p3052
sa(dp3053
g3
S'Kaltura'
p3054
sg5
I23
sg13
S'$69.1M'
p3055
sg15
I00
sg16
I160
sg8
I807
sg17
S'software'
p3056
sg2
I5
sg19
I00
sg20
I2006
sg9
S'Software Engineer'
p3057
sa(dp3058
g17
S'enterprise'
p3059
sg2
I6
sg135
Nsg136
I1998
sg16
Nsg3
S'SAP'
p3060
sg5
I27
sg8
I808
sg13
S'$0'
p3061
sg15
I01
sg19
I00
sg20
I1972
sg9
S'Software Engineer'
p3062
sa(dp3063
g2
I1
sg3
S'Ravello Systems'
p3064
sg5
I27
sg8
I809
sg9
S'Software Developer'
p3065
sa(dp3066
g2
I2
sg3
S'Maria and Boris Figovsky'
p3067
sg5
I27
sg8
I810
sg9
S'Co-founder'
p3068
sa(dp3069
g3
S'IDF'
p3070
sg5
I5
sg13
S'$0'
p3071
sg15
I00
sg16
Nsg8
I811
sg17
Nsg2
I3
sg19
I00
sg20
Nsg9
S'Software Architect'
p3072
sa(dp3073
g3
S'IDF'
p3074
sg5
I29
sg13
S'$0'
p3075
sg15
I00
sg16
Nsg8
I812
sg17
Nsg2
I4
sg19
I00
sg20
Nsg9
S'Senior Software Engineer'
p3076
sa(dp3077
g3
S'IDF'
p3078
sg5
I42
sg13
S'$0'
p3079
sg15
I00
sg16
Nsg8
I813
sg17
Nsg2
I5
sg19
I00
sg20
Nsg9
S'Software Engineer'
p3080
sa(dp3081
g3
S'IDF'
p3082
sg5
I11
sg13
S'$0'
p3083
sg15
I00
sg16
Nsg8
I814
sg17
Nsg2
I6
sg19
I00
sg20
Nsg9
S'Automated Systems Developer'
p3084
sa(dp3085
g3
S'ooVoo'
p3086
sg5
I26
sg13
S'$0'
p3087
sg15
I00
sg16
I95
sg8
I815
sg17
S'web'
p3088
sg2
I1
sg19
I00
sg20
I2007
sg6
S'Greater New York City Area'
p3089
sg9
S'VP, Advertising Sales & Business Development'
p3090
sa(dp3091
g3
S'ChaCha'
p3092
sg5
I12
sg13
S'$89M'
p3093
sg15
I00
sg16
I70
sg8
I816
sg17
S'advertising'
p3094
sg2
I2
sg19
I00
sg20
I2005
sg9
S'Director of Sales'
p3095
sa(dp3096
g2
I3
sg3
S'XOS Digital, Inc.'
p3097
sg5
I17
sg8
I817
sg9
S'Director of Digital Sales, Northeast'
p3098
sa(dp3099
g2
I4
sg3
S'Alloy Media + Marketing'
p3100
sg5
I24
sg8
I818
sg9
S'Director, Interactive Ad Sales & Branded Entertainment'
p3101
sa(dp3102
g2
I5
sg3
S'mtvU / Y2M: Youth Media and Marketing'
p3103
sg5
I12
sg8
I819
sg9
S'National Accounts Manager'
p3104
sa(dp3105
g2
I6
sg3
S'CO-ED Magazine'
p3106
sg5
I24
sg8
I820
sg9
S'VP, National Advertising Director'
p3107
sa(dp3108
g2
I7
sg3
S'PetroMar International'
p3109
sg5
I24
sg8
I821
sg9
S'Marketing Director / Operations Manager'
p3110
sa(dp3111
g2
I8
sg3
S'iPROexchange.com'
p3112
sg5
I24
sg8
I822
sg9
S'Director, New Business Development'
p3113
sa(dp3114
g2
I9
sg3
S'Motion Picture Artist Management'
p3115
sg5
I48
sg8
I823
sg9
S'Founder'
p3116
sa(dp3117
g2
I1
sg3
S'Tel Aviv University'
p3118
sg5
I12
sg8
I824
sg9
S'Researcher and lecturer at The Multidisplinary Program in the Humanities'
p3119
sa(dp3120
g2
I2
sg3
S'Indiana University'
p3121
sg5
I12
sg6
S'Bloomington, Indiana Area'
p3122
sg8
I825
sg9
S'Visiting Scholar'
p3123
sa(dp3124
g2
I3
sg3
S'The Hebrew University of Jerusalem'
p3125
sg5
I11
sg8
I826
sg9
S'Post doctoral researcher at the Smart Family Foundation Communication Institute'
p3126
sa(dp3127
g2
I4
sg3
S'Nili Goldfein'
p3128
sg5
I107
sg8
I827
sg9
S'Web Culture & Discourse PhD candidate, lecturer and consultant'
p3129
sa(dp3130
g2
I5
sg3
S'Sarit Perkol'
p3131
sg5
I108
sg8
I828
sg9
S'Freelance Writer'
p3132
sa(dp3133
g2
I6
sg3
S'Ilan Vagenshtein'
p3134
sg5
I35
sg8
I829
sg9
S'Media consulting and Marketing Communications for High Tech companies'
p3135
sa(dp3136
g2
I7
sg3
S'Israeli Tv Channel 1'
p3137
sg5
I8
sg8
I830
sg9
S'Editorial staff coordinator'
p3138
sa(dp3139
g2
I1
sg3
S'Doron Porat'
p3140
sg5
I48
sg8
I831
sg9
S'VP Marketing'
p3141
sa(dp3142
g2
I2
sg3
S'DavidShield'
p3143
sg5
I0
sg8
I832
sg9
S'Vp strategic accounts'
p3144
sa(dp3145
g2
I3
sg3
S'Davidoff insurance agency'
p3146
sg5
I24
sg8
I833
sg9
S'Health division manager'
p3147
sa(dp3148
g2
I4
sg3
S'AIG Israel'
p3149
sg5
I24
sg8
I834
sg9
S'Business Development Manager'
p3150
sa(dp3151
g17
S'search'
p3152
sg2
I1
sg135
Nsg136
I2004
sg16
I28000
sg3
S'Google'
p3153
sg5
I6
sg8
I835
sg13
S'$25.1M'
p3154
sg6
S'Mountain View, CA'
p3155
sg15
I01
sg19
I00
sg20
I1998
sg9
S'Lead Partner Technology Manager, Google Offers'
p3156
sa(dp3157
g17
S'search'
p3158
sg2
I2
sg135
Nsg136
I2004
sg16
I28000
sg3
S'Google'
p3159
sg5
I25
sg8
I836
sg13
S'$25.1M'
p3160
sg6
S'San Francisco, CA'
p3161
sg15
I01
sg19
I00
sg20
I1998
sg9
S'Staff Partner Technology Manager, Google Wallet'
p3162
sa(dp3163
g17
S'search'
p3164
sg2
I3
sg135
Nsg136
I2004
sg16
I28000
sg3
S'Google'
p3165
sg5
I36
sg8
I837
sg13
S'$25.1M'
p3166
sg6
S'Mountain View, CA'
p3167
sg15
I01
sg19
I00
sg20
I1998
sg9
S'Senior Technical Account Manager'
p3168
sa(dp3169
g17
S'search'
p3170
sg2
I4
sg135
Nsg136
I2004
sg16
I28000
sg3
S'Google'
p3171
sg5
I24
sg8
I838
sg13
S'$25.1M'
p3172
sg6
S'Mountain View, CA'
p3173
sg15
I01
sg19
I00
sg20
I1998
sg9
S'Technical Account Manager'
p3174
sa(dp3175
g17
S'search'
p3176
sg2
I5
sg135
Nsg136
I2004
sg16
I28000
sg3
S'Google'
p3177
sg5
I29
sg8
I839
sg13
S'$25.1M'
p3178
sg15
I01
sg19
I00
sg20
I1998
sg9
S'Associate Technical Account Manager'
p3179
sa(dp3180
g17
S'search'
p3181
sg2
I6
sg135
Nsg136
I2004
sg16
I28000
sg3
S'Google'
p3182
sg5
I16
sg8
I840
sg13
S'$25.1M'
p3183
sg6
S'Mountain View, CA'
p3184
sg15
I01
sg19
I00
sg20
I1998
sg9
S'AdSense Coordinator'
p3185
sa(dp3186
g2
I7
sg3
S'PriceGrabber LLC'
p3187
sg5
I11
sg8
I841
sg9
S'Software Engineer'
p3188
sa(dp3189
g2
I1
sg3
S'Mayo Clinic'
p3190
sg5
I90
sg8
I842
sg9
S'Senior Engineer'
p3191
sa(dp3192
g2
I2
sg3
S'Pemstar'
p3193
sg5
I85
sg8
I843
sg9
S'Electrical Engineer II'
p3194
sa(dp3195
g2
I1
sg3
S'Pioneer International Group'
p3196
sg5
I180
sg8
I844
sg9
S'Senior Financial Planner and Advisor'
p3197
sa(dp3198
g2
I2
sg3
S'United Mizrahi Bank'
p3199
sg5
I84
sg8
I845
sg9
S'Senior Economist'
p3200
sa(dp3201
g2
I3
sg3
S'Telrad Communications Ltd'
p3202
sg5
I48
sg8
I846
sg9
S'Head of Economics, Marketing Division'
p3203
sa(dp3204
g2
I1
sg3
S'Ness Technologies'
p3205
sg5
I40
sg6
S'Israel , Jerusalem Kanfey Nesharim 24'
p3206
sg8
I847
sg9
S'Senior Programmer'
p3207
sa(dp3208
g17
S'software'
p3209
sg2
I2
sg19
I01
sg3
S'SintecMedia'
p3210
sg5
I34
sg8
I848
sg13
S'$10M'
p3211
sg6
S'Jerusalem, Israel'
p3212
sg15
I00
sg16
Nsg20
Nsg65
F103000000.0
sg9
S'Senior Programmer'
p3213
sa(dp3214
g17
S'other'
p3215
sg2
I3
sg19
I01
sg3
S'COMPASS'
p3216
sg5
I28
sg8
I849
sg13
S'$0'
p3217
sg6
S'Jerusalem, Israel'
p3218
sg15
I00
sg16
Nsg20
I1980
sg65
Nsg9
S'Senior Programmer'
p3219
sa(dp3220
g2
I4
sg3
S'Buyers Toolbox - antusa.com'
p3221
sg5
I25
sg6
S'Jerusalem, Israel'
p3222
sg8
I850
sg9
S'Programmer'
p3223
sa(dp3224
g2
I5
sg3
S'BMS.Ltd(Incentive)         - Startup'
p3225
sg5
I11
sg6
S'Jerusalem, Israel'
p3226
sg8
I851
sg9
S'Programmer'
p3227
sa(dp3228
g3
S'ViryaNet'
p3229
sg5
I52
sg13
S'$0'
p3230
sg15
I00
sg16
Nsg8
I852
sg17
Nsg2
I6
sg19
I00
sg20
Nsg6
S'Jerusalem, Israel'
p3231
sg9
S'Programmer'
p3232
sa(dp3233
g2
I7
sg3
S'Cleyal.Ltd     - Startup'
p3234
sg5
I29
sg6
S'Jerusalem, Israel'
p3235
sg8
I853
sg9
S'Programmer'
p3236
sa(dp3237
g2
I8
sg3
S'Ministry of Energy; Israel, Jerusalem'
p3238
sg5
I71
sg6
S'Israel, Jerusalem'
p3239
sg8
I854
sg9
S'Free Lancer'
p3240
sa(dp3241
g2
I9
sg3
S'Ministry of Energy; Yerevan, Armenia'
p3242
sg5
I51
sg6
S'Yerevan, Armenia'
p3243
sg8
I855
sg9
S'Engineer Economist'
p3244
sa(dp3245
g2
I1
sg3
S'Mobileye'
p3246
sg5
I33
sg8
I856
sg9
S'Scientist'
p3247
sa(dp3248
g2
I2
sg3
S'Elbit Electro-optics Elop'
p3249
sg5
I84
sg8
I857
sg9
S'Scientist'
p3250
sa(dp3251
g2
I1
sg3
S'Codename One'
p3252
sg5
I18
sg8
I858
sg9
S'Co-Founder'
p3253
sa(dp3254
g17
S'enterprise'
p3255
sg2
I2
sg135
Nsg136
I1986
sg16
I85000
sg3
S'Oracle'
p3256
sg5
I20
sg8
I859
sg13
S'$0'
p3257
sg15
I01
sg19
I00
sg20
I1977
sg9
S'Software Architect'
p3258
sa(dp3259
g2
I3
sg3
S'Sun Microsystems'
p3260
sg5
I72
sg8
I860
sg9
S'Tech Lead'
p3261
sa(dp3262
g2
I4
sg3
S'vPrise Consulting'
p3263
sg5
I48
sg8
I861
sg9
S'Software engineer'
p3264
sa(dp3265
g2
I1
sg3
S'Teva Pharmaceutical Industries Ltd.'
p3266
sg5
I30
sg8
I862
sg9
S'Financial Analyst'
p3267
sa(dp3268
g2
I2
sg3
S'IVC Research Center'
p3269
sg5
I14
sg8
I863
sg9
S'Information Specialist'
p3270
sa(dp3271
g2
I1
sg3
S'VideoFlow.Ltd'
p3272
sg5
I42
sg8
I864
sg9
S'COO & Co Founder'
p3273
sa(dp3274
g2
I2
sg3
S'Scopus Network Technologies'
p3275
sg5
I108
sg8
I865
sg9
S'VP R&D'
p3276
sa(dp3277
g2
I1
sg3
S'Hasbro Inc.'
p3278
sg5
I6
sg6
S'Rhode Island'
p3279
sg8
I866
sg9
S'Associate Brand Manager'
p3280
sa(dp3281
g2
I2
sg3
S'Boston University School of Management'
p3282
sg5
I22
sg6
S'Boston, Massachusetts'
p3283
sg8
I867
sg9
S'MBA Candidate, Class of 2013'
p3284
sa(dp3285
g2
I3
sg3
S'Lindt & Sprungli'
p3286
sg5
I3
sg6
S'Stratham, New Hampshire'
p3287
sg8
I868
sg9
S'Associate Brand Manager Intern'
p3288
sa(dp3289
g2
I4
sg3
S'General Atomics ASI'
p3290
sg5
I27
sg6
S'Poway, CA'
p3291
sg8
I869
sg9
S'Department Specialist III, Cost Estimation Group'
p3292
sa(dp3293
g17
S'public_relations'
p3294
sg2
I1
sg19
I01
sg3
S'RADVISION'
p3295
sg5
I63
sg8
I870
sg13
S'$0'
p3296
sg6
S'Boulogne-Billancourt'
p3297
sg15
I00
sg16
Nsg20
I1992
sg65
Nsg9
VSales Coordinator EMEA  Office Manager France
p3298
sa(dp3299
g2
I2
sg3
S'Beijaflore'
p3300
sg5
I0
sg6
S'Paris XVI'
p3301
sg8
I871
sg9
S'Sales Administration Assistant'
p3302
sa(dp3303
g2
I3
sg3
S'Montcel'
p3304
sg5
I2
sg6
S'Salon Mondial du Tourisme (Paris-Porte de Versailles)'
p3305
sg8
I872
sg9
S'Marketing Assistant'
p3306
sa(dp3307
g2
I4
sg3
VLyce St Franois d'Assise
p3308
sg5
I4
sg6
S'FONTENAY AUX ROSES'
p3309
sg8
I873
sg9
S'French and English teacher'
p3310
sa(dp3311
g2
I5
sg3
VMinistre des Affaires Etrangres : Quai d\u2019Orsay
p3312
sg5
I2
sg6
S'Paris VII'
p3313
sg8
I874
sg9
VVacataire au secrtariat de Direction des Affaires Economiques et Financires
p3314
sa(dp3315
g2
I6
sg3
VMinistre des Affaires Etrangres : Quai d\u2019Orsay
p3316
sg5
I1
sg6
S'Paris VII'
p3317
sg8
I875
sg9
VVacataire au secrtariat de Direction des Affaires Economiques et Financires
p3318
sa(dp3319
g2
I1
sg3
S'Darwin College Cambridge'
p3320
sg5
I176
sg8
I876
sg9
S'Fellow'
p3321
sa(dp3322
g2
I2
sg3
S'University of Edinburgh'
p3323
sg5
I188
sg8
I877
sg9
S'Professor of Computer Science'
p3324
sa(dp3325
g2
I3
sg3
S'Microsoft Research Cambridge'
p3326
sg5
I188
sg8
I878
sg9
S'Chief Research Scientist'
p3327
sa(dp3328
g2
I4
sg3
S'Aston University'
p3329
sg5
I48
sg8
I879
sg9
S'Professor of Computer Science'
p3330
sa(dp3331
g2
I5
sg3
S'AEA Technology'
p3332
sg5
I24
sg8
I880
sg9
S'Head of Applied Neurocomputing Centre'
p3333
sa(dp3334
g2
I6
sg3
S'UKAEA, Culham'
p3335
sg5
I96
sg8
I881
sg9
S'Research Scientist'
p3336
sa(dp3337
g2
I1
sg3
S'GE Power'
p3338
sg5
I97
sg8
I882
sg9
S'PWB design drafter emeritus'
p3339
sa(dp3340
g2
I2
sg3
S'Lineage Power'
p3341
sg5
I70
sg8
I883
sg9
S"So long LP,It's been good to know ya. I was a layout son-of-a-gun"
p3342
sa(dp3343
g2
I3
sg3
S'Texas Instruments'
p3344
sg5
I144
sg8
I884
sg9
S'Jet Ace'
p3345
sa(dp3346
g2
I1
sg3
S'Kraft Foods Group'
p3347
sg5
I27
sg8
I885
sg9
S'Senior Associate Brand Manager'
p3348
sa(dp3349
g2
I2
sg3
S'General Mills'
p3350
sg5
I7
sg8
I886
sg9
S'Associate Marketing Manager'
p3351
sa(dp3352
g2
I3
sg3
S'Alberto Culver'
p3353
sg5
I3
sg8
I887
sg9
S'Brand Associate Intern'
p3354
sa(dp3355
g2
I4
sg3
S'Legacy Concierge'
p3356
sg5
I5
sg8
I888
sg9
S'Independent Consultant'
p3357
sa(dp3358
g2
I5
sg3
S'Tiffany & Co.'
p3359
sg5
I12
sg8
I889
sg9
S'Sales Professional'
p3360
sa(dp3361
g2
I6
sg3
S'Lilly Pulitzer'
p3362
sg5
I7
sg8
I890
sg9
S'Assistant Store Manager'
p3363
sa(dp3364
g2
I7
sg3
S"L'Oreal S.A."
p3365
sg5
I0
sg8
I891
sg9
S'Marketing Intern'
p3366
sa(dp3367
g3
S'Pursway'
p3368
sg5
I12
sg13
S'$13.2M'
p3369
sg15
I00
sg16
Nsg8
I892
sg17
S'analytics'
p3370
sg2
I1
sg19
I00
sg20
I2005
sg9
S'Software Developer'
p3371
sa(dp3372
g3
S'Pursway'
p3373
sg5
I24
sg13
S'$13.2M'
p3374
sg15
I00
sg16
Nsg8
I893
sg17
S'analytics'
p3375
sg2
I2
sg19
I00
sg20
I2005
sg9
S'PS Engineer'
p3376
sa(dp3377
g2
I3
sg3
S'IDF, Intelligence corps'
p3378
sg5
I36
sg8
I894
sg9
S'Analyst, Guide, Team leader'
p3379
sa(dp3380
g2
I1
sg3
S'BSR Europe'
p3381
sg5
I0
sg6
S'Israel'
p3382
sg8
I895
sg9
S'Sales and Marketing'
p3383
sa(dp3384
g2
I2
sg3
S'Alpha Properties NYC'
p3385
sg5
I60
sg6
S'Greater New York City Area'
p3386
sg8
I896
sg9
S'Sales and Marketing'
p3387
sa(dp3388
g3
S'Netcraft'
p3389
sg5
I45
sg13
S'$0'
p3390
sg15
I00
sg16
Nsg8
I897
sg17
S'web'
p3391
sg2
I1
sg19
I00
sg20
Nsg6
S'Ramat Gan'
p3392
sg9
S'Chairman'
p3393
sa(dp3394
g2
I2
sg3
S'Orna Gusinski'
p3395
sg5
I67
sg6
S'Tel Aviv'
p3396
sg8
I898
sg9
S'CEO'
p3397
sa(dp3398
g2
I3
sg3
S'Nir Ofir'
p3399
sg5
I36
sg8
I899
sg9
S'Founder & VP biz dev'
p3400
sa(dp3401
g2
I4
sg3
S'Omri Dolev'
p3402
sg5
I66
sg8
I900
sg9
S'Head of Tapuz Mobile'
p3403
sa(dp3404
g2
I5
sg3
S'Rommy El Ami'
p3405
sg5
I12
sg8
I901
sg9
S'Director of Marketing and Business development'
p3406
sa(dp3407
g3
S'IOL'
p3408
sg5
I18
sg13
S'$0'
p3409
sg15
I00
sg16
Nsg8
I902
sg17
Nsg2
I6
sg19
I00
sg20
Nsg9
S'Business development manager'
p3410
sa(dp3411
g17
S'search'
p3412
sg2
I1
sg135
Nsg136
I2004
sg16
I28000
sg3
S'Google'
p3413
sg5
I37
sg8
I903
sg13
S'$25.1M'
p3414
sg15
I01
sg19
I00
sg20
I1998
sg9
S'Tech lead manager'
p3415
sa(dp3416
g17
S'search'
p3417
sg2
I2
sg135
Nsg136
I2004
sg16
I28000
sg3
S'Google'
p3418
sg5
I49
sg8
I904
sg13
S'$25.1M'
p3419
sg15
I01
sg19
I00
sg20
I1998
sg9
S'Tech Lead'
p3420
sa(dp3421
g17
S'search'
p3422
sg2
I3
sg135
Nsg136
I2004
sg16
I28000
sg3
S'Google'
p3423
sg5
I75
sg8
I905
sg13
S'$25.1M'
p3424
sg15
I01
sg19
I00
sg20
I1998
sg9
S'Software Engineer'
p3425
sa(dp3426
g17
S'software'
p3427
sg2
I4
sg135
Nsg136
I1986
sg16
I90000
sg3
S'Amitai Rottem'
p3428
sg5
I35
sg8
I906
sg13
S'$0'
p3429
sg15
I01
sg19
I00
sg20
I1974
sg9
S'Software Engineer'
p3430
sa(dp3431
g3
S'Narus'
p3432
sg5
I3
sg13
S'$38.7M'
p3433
sg15
I00
sg16
Nsg8
I907
sg17
S'security'
p3434
sg2
I5
sg19
I00
sg20
I1997
sg9
S'Summer intern (programmer)'
p3435
sa(dp3436
g2
I1
sg3
S'Red Hat, formerly Qumranet'
p3437
sg5
I72
sg8
I908
sg9
S'Principal Software Engineer'
p3438
sa(dp3439
g3
S'Self-employed'
p3440
sg5
I151
sg13
S'$0'
p3441
sg15
I00
sg16
Nsg8
I909
sg17
Nsg2
I2
sg19
I00
sg20
Nsg9
S'Free Software Developer and Packager'
p3442
sa(dp3443
g2
I3
sg3
S'University of Haifa'
p3444
sg5
I5
sg8
I910
sg9
S'Lecturer'
p3445
sa(dp3446
g3
S'Technion'
p3447
sg5
I81
sg13
S'$0'
p3448
sg15
I00
sg16
Nsg8
I911
sg17
Nsg2
I4
sg19
I00
sg20
Nsg9
S'Teaching and Research Assistant'
p3449
sa(dp3450
g2
I5
sg3
S'(withheld)'
p3451
sg5
I73
sg8
I912
sg9
S'Software Engineer'
p3452
sa(dp3453
g2
I1
sg3
S'Ex Libris'
p3454
sg5
I21
sg6
S'Jerusalem, Israel'
p3455
sg8
I913
sg9
S'Director of Engineering Architecture'
p3456
sa(dp3457
g2
I2
sg3
S'Jeff Schneiderman'
p3458
sg5
I86
sg6
S'Israel'
p3459
sg8
I914
sg9
S'Director of Ops'
p3460
sa(dp3461
g2
I3
sg3
S'Mifal Hapais - Israel State Lottery'
p3462
sg5
I24
sg8
I915
sg9
S'Technical Projects Head'
p3463
sa(dp3464
g2
I4
sg3
S'Alchemedia Ltd.'
p3465
sg5
I36
sg8
I916
sg9
S'IT Director'
p3466
sa(dp3467
g2
I5
sg3
S'LivePicture / OLiVR'
p3468
sg5
I0
sg8
I917
sg9
S'IT Manager'
p3469
sa(dp3470
g2
I6
sg3
S'Accent Software International'
p3471
sg5
I36
sg8
I918
sg9
S'MIS Analyst'
p3472
sa(dp3473
g2
I7
sg3
S'Pilat Ltd'
p3474
sg5
I24
sg8
I919
sg9
S'Support Analyst/Trainer'
p3475
sa(dp3476
g2
I8
sg3
S'Bank Generale du Luxembourg (formerly Michael Fordham & Co.)'
p3477
sg5
I24
sg8
I920
sg9
S'Support Analyst/Programmer'
p3478
sa(dp3479
g3
S'BillGuard'
p3480
sg5
I6
sg13
S'$13M'
p3481
sg15
I00
sg16
I12
sg8
I921
sg17
S'security'
p3482
sg2
I1
sg19
I00
sg20
I2010
sg6
S'Israel'
p3483
sg9
S'Director of Product Marketing'
p3484
sa(dp3485
g3
S'Magisto'
p3486
sg5
I12
sg13
S'$18.5M'
p3487
sg15
I00
sg16
I17
sg8
I922
sg17
S'web'
p3488
sg2
I2
sg19
I00
sg20
I2011
sg9
S'Marketing and product management consultant'
p3489
sa(dp3490
g2
I3
sg3
S'Honesty Box'
p3491
sg5
I55
sg8
I923
sg9
S'Founder and CEO'
p3492
sa(dp3493
g2
I4
sg3
VLe Palais des Ths Israel
p3494
sg5
I12
sg8
I924
sg9
S'Co-founder'
p3495
sa(dp3496
g2
I5
sg3
S'Social Expeditions (Sold to Kama Games)'
p3497
sg5
I11
sg6
S'Global'
p3498
sg8
I925
sg9
S'Chief Product Officer'
p3499
sa(dp3500
g2
I6
sg3
S'Investors Iraq Forum'
p3501
sg5
I48
sg8
I926
sg9
S'Founder'
p3502
sa(dp3503
g2
I7
sg3
S'NishNash.com'
p3504
sg5
I21
sg8
I927
sg9
S'Founder'
p3505
sa(dp3506
g2
I8
sg3
S'PortAl Iraq'
p3507
sg5
I52
sg8
I928
sg9
S'Founder'
p3508
sa(dp3509
g2
I1
sg3
S'ravello systems'
p3510
sg5
I25
sg8
I929
sg9
S'Software Eng'
p3511
sa(dp3512
g2
I2
sg3
S'NICE Systems'
p3513
sg5
I22
sg8
I930
sg9
S'Infrastructure/Kernel engineering team leader'
p3514
sa(dp3515
g2
I3
sg3
S'NICE Systems'
p3516
sg5
I60
sg8
I931
sg9
S'Senior Software Engineer'
p3517
sa(dp3518
g3
S'ECtel'
p3519
sg5
I36
sg13
S'$0'
p3520
sg15
I00
sg16
Nsg8
I932
sg17
Nsg2
I4
sg19
I00
sg20
Nsg9
S'Software Engineer'
p3521
sa(dp3522
g2
I5
sg3
S'Ness Technologies'
p3523
sg5
I24
sg8
I933
sg9
S'Sotware Engineer'
p3524
sa(dp3525
g17
S'software'
p3526
sg2
I1
sg135
Nsg136
I1986
sg16
I90000
sg3
S'Microsoft'
p3527
sg5
I25
sg8
I934
sg13
S'$0'
p3528
sg6
S'Israel'
p3529
sg15
I01
sg19
I00
sg20
I1974
sg9
S'Business Group Lead Servers and Tools'
p3530
sa(dp3531
g2
I2
sg3
S'Verint-Systems'
p3532
sg5
I12
sg8
I935
sg9
S'Director of Sales North America'
p3533
sa(dp3534
g2
I3
sg3
S'Ken Bouche'
p3535
sg5
I12
sg8
I936
sg9
S'Director of Marketing Strategy & Business Development, USA and West Europe'
p3536
sa(dp3537
g2
I4
sg3
S'Verint Systems'
p3538
sg5
I48
sg8
I937
sg9
S'Director of Product Marketing'
p3539
sa(dp3540
g2
I5
sg3
S'SofaWare Tech A Check Point Company'
p3541
sg5
I36
sg8
I938
sg9
S'Worldwide Marketing Manager'
p3542
sa(dp3543
g17
S'enterprise'
p3544
sg2
I1
sg135
Nsg136
I1998
sg16
Nsg3
S'SAP'
p3545
sg5
I35
sg8
I939
sg13
S'$0'
p3546
sg15
I01
sg19
I00
sg20
I1972
sg9
S'Software engineer'
p3547
sa(dp3548
g2
I2
sg3
S'ECI Telecom'
p3549
sg5
I12
sg8
I940
sg9
S'software engineer'
p3550
sa(dp3551
g17
S'software'
p3552
sg2
I1
sg135
Nsg136
I1986
sg16
I90000
sg3
S'Microsoft'
p3553
sg5
I43
sg8
I941
sg13
S'$0'
p3554
sg15
I01
sg19
I00
sg20
I1974
sg9
S'Principal Group Program Manager'
p3555
sa(dp3556
g3
S'Imperva'
p3557
sg5
I8
sg13
S'$37M'
p3558
sg15
I00
sg16
Nsg8
I942
sg17
S'software'
p3559
sg2
I2
sg19
I00
sg20
I2002
sg9
S'VP Product Management'
p3560
sa(dp3561
g2
I3
sg3
S'Check Point Software Technologies'
p3562
sg5
I12
sg8
I943
sg9
S'Head of Staff, Office of the CEO & Strategic Product Planning'
p3563
sa(dp3564
g2
I4
sg3
S'Check Point Software Technologies'
p3565
sg5
I24
sg8
I944
sg9
S'Director, VPN Products'
p3566
sa(dp3567
g2
I5
sg3
S'Check Point Software Technologies'
p3568
sg5
I32
sg8
I945
sg9
S'VPN Site2Site & VPN Clients Groups Manager'
p3569
sa(dp3570
g2
I6
sg3
S'Check Point Software Technologies'
p3571
sg5
I17
sg8
I946
sg9
S'Clustering & Performance Group Manager'
p3572
sa(dp3573
g2
I7
sg3
S"Charlotte's web networks"
p3574
sg5
I35
sg8
I947
sg9
S'Software team leader'
p3575
sa(dp3576
g17
S'software'
p3577
sg2
I8
sg135
Nsg136
I1986
sg16
I90000
sg3
S'Microsoft'
p3578
sg5
I17
sg8
I948
sg13
S'$0'
p3579
sg15
I01
sg19
I00
sg20
I1974
sg9
S'Software Developer'
p3580
sa(dp3581
g2
I1
sg3
S'Gaby Rosenberg'
p3582
sg5
I177
sg8
I949
sg9
S'Founder, CEO'
p3583
sa(dp3584
g2
I2
sg3
S'GlenRock Group'
p3585
sg5
I129
sg8
I950
sg9
S'Partner'
p3586
sa(dp3587
g3
S'Outbrain'
p3588
sg5
I84
sg13
S'$99M'
p3589
sg15
I00
sg16
Nsg8
I951
sg17
S'web'
p3590
sg2
I3
sg19
I00
sg20
I2006
sg9
S'Investor'
p3591
sa(dp3592
g2
I4
sg3
S'Face.com'
p3593
sg5
I53
sg8
I952
sg9
S'Board Member'
p3594
sa(dp3595
g2
I5
sg3
S'Tigris Financial Group.'
p3596
sg5
I69
sg8
I953
sg9
S'Adviser'
p3597
sa(dp3598
g2
I6
sg3
S'BestTV - Brightcove - Level3'
p3599
sg5
I141
sg8
I954
sg9
S'Co-Founder'
p3600
sa(dp3601
g2
I7
sg3
S'Singr.FM'
p3602
sg5
I21
sg8
I955
sg9
S'Co-Founder, Chairman'
p3603
sa(dp3604
g3
S'REL8'
p3605
sg5
I24
sg13
S'$0'
p3606
sg15
I00
sg16
Nsg8
I956
sg17
Nsg2
I8
sg19
I00
sg20
Nsg9
S'Co-Founder, Chairman'
p3607
sa(dp3608
g2
I9
sg3
S'Rounds'
p3609
sg5
I52
sg8
I957
sg9
S'Board Member'
p3610
sa(dp3611
g3
S'Yotpo'
p3612
sg5
I13
sg13
S'$2.3M'
p3613
sg15
I00
sg16
I13
sg8
I958
sg17
S'ecommerce'
p3614
sg2
I10
sg19
I00
sg20
I2011
sg9
S'Investor'
p3615
sa(dp3616
g3
S'ZooZ'
p3617
sg5
I24
sg13
S'$3.5M'
p3618
sg15
I00
sg16
I15
sg8
I959
sg17
S'ecommerce'
p3619
sg2
I11
sg19
I00
sg20
I2010
sg9
S'Board Observer'
p3620
sa(dp3621
g2
I12
sg3
S'HopStop.com'
p3622
sg5
I69
sg8
I960
sg9
S'Investor'
p3623
sa(dp3624
g2
I13
sg3
S'Yieldmo, Inc.'
p3625
sg5
I15
sg8
I961
sg9
S'Board Observer'
p3626
sa(dp3627
g3
S'GreenSQL'
p3628
sg5
I32
sg13
S'$7.4M'
p3629
sg15
I00
sg16
I20
sg8
I962
sg17
S'security'
p3630
sg2
I14
sg19
I00
sg20
I2009
sg9
S'Board Observer'
p3631
sa(dp3632
g2
I15
sg3
S'Startup Genome'
p3633
sg5
I16
sg8
I963
sg9
S'Investor'
p3634
sa(dp3635
g2
I16
sg3
S'Samba Ads'
p3636
sg5
I8
sg8
I964
sg9
S'Investor'
p3637
sa(dp3638
g2
I17
sg3
S'The Cools'
p3639
sg5
I14
sg8
I965
sg9
S'Investor'
p3640
sa(dp3641
g2
I18
sg3
S'Vstory'
p3642
sg5
I9
sg8
I966
sg9
S'Investor'
p3643
sa(dp3644
g2
I19
sg3
S'GoFlow'
p3645
sg5
I9
sg8
I967
sg9
S'Investor'
p3646
sa(dp3647
g2
I20
sg3
S'IDC Elevator'
p3648
sg5
I28
sg8
I968
sg9
S'Investor & Mentor'
p3649
sa(dp3650
g3
S'Doweet'
p3651
sg5
I27
sg13
S'$0'
p3652
sg15
I00
sg16
Nsg8
I969
sg17
Nsg2
I21
sg19
I00
sg20
Nsg9
S'Investor'
p3653
sa(dp3654
g2
I22
sg3
S'Summit Series'
p3655
sg5
I42
sg8
I970
sg9
S'Member'
p3656
sa(dp3657
g3
S'ASOCS'
p3658
sg5
I64
sg13
S'$18.5M'
p3659
sg15
I00
sg16
I50
sg8
I971
sg17
S'mobile'
p3660
sg2
I23
sg19
I00
sg20
I2003
sg9
S'Investor'
p3661
sa(dp3662
g2
I24
sg3
S'EyeCue Vision Technologies Ltd.'
p3663
sg5
I28
sg8
I972
sg9
S'Investor'
p3664
sa(dp3665
g2
I25
sg3
S'Great Shape'
p3666
sg5
I100
sg8
I973
sg9
S'Investor'
p3667
sa(dp3668
g3
S'Shook'
p3669
sg5
I12
sg13
S'$0'
p3670
sg15
I00
sg16
I4
sg8
I974
sg17
S'ecommerce'
p3671
sg2
I26
sg19
I00
sg20
I2012
sg9
S'Investor'
p3672
sa(dp3673
g3
S'ecomom'
p3674
sg5
I18
sg13
S'$10.7M'
p3675
sg15
I00
sg16
I60
sg8
I975
sg17
S'ecommerce'
p3676
sg2
I27
sg19
I00
sg20
I2008
sg9
S'Observer'
p3677
sa(dp3678
g2
I28
sg3
S'Govli, ISL'
p3679
sg5
I108
sg8
I976
sg9
S'Board Member'
p3680
sa(dp3681
g3
S'Hashable'
p3682
sg5
I52
sg13
S'$4M'
p3683
sg15
I00
sg16
I17
sg8
I977
sg17
S'mobile'
p3684
sg2
I29
sg19
I00
sg20
I2010
sg9
S'Observer'
p3685
sa(dp3686
g3
S'GuerillApps'
p3687
sg5
I14
sg13
S'$500k'
p3688
sg15
I00
sg16
I14
sg8
I978
sg17
S'games_video'
p3689
sg2
I30
sg19
I00
sg20
I2008
sg9
S'Board Member'
p3690
sa(dp3691
g2
I31
sg3
S'Gmul Investment company Ltd'
p3692
sg5
I50
sg8
I979
sg9
S'Board Member'
p3693
sa(dp3694
g3
S'Libox'
p3695
sg5
I19
sg13
S'$2M'
p3696
sg15
I00
sg16
I6
sg8
I980
sg17
S'web'
p3697
sg2
I32
sg19
I00
sg20
I2008
sg9
S'Board Member'
p3698
sa(dp3699
g17
S'mobile'
p3700
sg2
I33
sg19
I01
sg3
S'Modu'
p3701
sg5
I32
sg8
I981
sg13
S'$85M'
p3702
sg15
I00
sg16
I130
sg20
I2007
sg65
F4900000.0
sg9
S'Board Member'
p3703
sa(dp3704
g3
S'Mportico'
p3705
sg5
I25
sg13
S'$3.75M'
p3706
sg15
I00
sg16
I10
sg8
I982
sg17
S'mobile'
p3707
sg2
I34
sg19
I00
sg20
I2006
sg9
S'Board Member'
p3708
sa(dp3709
g2
I35
sg3
S'Tamir Fishman Asset Management'
p3710
sg5
I21
sg8
I983
sg9
S'Observer'
p3711
sa(dp3712
g2
I36
sg3
S'Jag.ag Mobile'
p3713
sg5
I18
sg8
I984
sg9
S'Board Member'
p3714
sa(dp3715
g2
I37
sg3
S'Harel-Hertz Investment House'
p3716
sg5
I16
sg8
I985
sg9
S'Executive Vice President'
p3717
sa(dp3718
g2
I38
sg3
S'Barbarella'
p3719
sg5
I53
sg8
I986
sg9
S'Co Founder'
p3720
sa(dp3721
g3
S'Conduit'
p3722
sg5
I22
sg13
S'$110M'
p3723
sg15
I00
sg16
I215
sg8
I987
sg17
S'advertising'
p3724
sg2
I1
sg19
I00
sg20
I2005
sg9
S'Front End Developer'
p3725
sa(dp3726
g3
S'WebsPlanet'
p3727
sg5
I17
sg13
S'$0'
p3728
sg15
I00
sg16
Nsg8
I988
sg17
Nsg2
I2
sg19
I00
sg20
Nsg9
S'Web Designer, Front End Developer'
p3729
sa(dp3730
g3
S'MyHeritage'
p3731
sg5
I28
sg13
S'$49M'
p3732
sg15
I00
sg16
Nsg8
I989
sg17
S'social'
p3733
sg2
I1
sg19
I00
sg20
I2005
sg9
S'Back-end software developer'
p3734
sa(dp3735
g3
S'Pontis'
p3736
sg5
I22
sg13
S'$34.7M'
p3737
sg15
I00
sg16
I105
sg8
I990
sg17
S'software'
p3738
sg2
I2
sg19
I00
sg20
I2004
sg9
S'Software developer'
p3739
sa(dp3740
g2
I3
sg3
S'By The People'
p3741
sg5
I12
sg8
I991
sg9
S'Partner - Software architect and developer'
p3742
sa(dp3743
g3
S'Bill Heye'
p3744
sg5
I121
sg13
S'$0'
p3745
sg15
I00
sg16
Nsg8
I992
sg17
Nsg2
I4
sg19
I00
sg20
Nsg9
S'Software Architect'
p3746
sa(dp3747
g2
I5
sg3
S'contop'
p3748
sg5
I24
sg8
I993
sg9
S'Developer'
p3749
sa(dp3750
g3
S'SPL'
p3751
sg5
I24
sg13
S'$0'
p3752
sg15
I00
sg16
Nsg8
I994
sg17
S'medical'
p3753
sg2
I6
sg19
I00
sg20
Nsg9
S'Developer'
p3754
sa(dp3755
g3
S'NCC'
p3756
sg5
I12
sg13
S'$0'
p3757
sg15
I00
sg16
Nsg8
I995
sg17
Nsg2
I7
sg19
I00
sg20
Nsg9
S'Developer'
p3758
sa(dp3759
g2
I8
sg3
S'IAF Mamdas'
p3760
sg5
I72
sg8
I996
sg9
S'Programmer'
p3761
sa(dp3762
g2
I1
sg3
S'Daphna - Executive Search'
p3763
sg5
I6
sg6
S'Israel'
p3764
sg8
I997
sg9
S'CEO'
p3765
sa(dp3766
g2
I2
sg3
S'HTR Global'
p3767
sg5
I42
sg8
I998
sg9
S'CEO'
p3768
sa(dp3769
g2
I3
sg3
S'HTR Global'
p3770
sg5
I36
sg8
I999
sg9
S'COO'
p3771
sa(dp3772
g3
S'Shaldor'
p3773
sg5
I25
sg13
S'$0'
p3774
sg15
I00
sg16
Nsg8
I1000
sg17
Nsg2
I1
sg19
I00
sg20
Nsg9
S'Strategic Consultant'
p3775
sa(dp3776
g2
I2
sg3
S'Tel Aviv University'
p3777
sg5
I24
sg8
I1001
sg9
S'Masters Student'
p3778
sa.