(lp0
(lp1
I0
aF1.0
aF0.782608695652174
aF0.5581395348837209
aF0.8372093023255814
aF0.3076923076923077
aF0.5
aF0.3076923076923077
aF0.375
aF0.375
aF0.5238095238095238
aF0.5238095238095238
aF0.5238095238095238
aF0.6190476190476191
aF0.6190476190476191
aF0.6190476190476191
aF0.2857142857142857
aF0.32727272727272727
aF0.29411764705882354
aF0.5238095238095238
aF0.5238095238095238
aF0.5238095238095238
aF0.5238095238095238
aF0.5238095238095238
aF0.34285714285714286
aF0.32558139534883723
aF0.37209302325581395
aF0.375
aF0.1935483870967742
aF0.4090909090909091
aF0.3333333333333333
aF1.0
aF0.2608695652173913
aF0.24
aF0.2727272727272727
aF0.4666666666666667
aF0.4666666666666667
aF0.4666666666666667
aF0.21052631578947367
aF0.2727272727272727
aF0.2727272727272727
aF0.21052631578947367
aF0.4
aF0.2
aF0.21052631578947367
aF0.32
aF0.3157894736842105
aF0.22857142857142856
aF0.2857142857142857
aF0.3
aF0.2857142857142857
aF0.34782608695652173
aF0.21052631578947367
aF0.2857142857142857
aF0.3076923076923077
aF0.2222222222222222
aF0.2857142857142857
aF0.1111111111111111
aF0.3
aF0.19047619047619047
aF0.18181818181818182
aI0
aI0
aI0
aF0.28
aF0.05
aa(lp2
I0
aF0.782608695652174
aF1.0
aF0.358974358974359
aF0.6666666666666666
aF0.375
aF0.45
aF0.2857142857142857
aF0.3181818181818182
aF0.3181818181818182
aF0.5263157894736842
aF0.5263157894736842
aF0.5263157894736842
aF0.42105263157894735
aF0.42105263157894735
aF0.42105263157894735
aF0.3225806451612903
aF0.3137254901960784
aF0.34375
aF0.5263157894736842
aF0.5263157894736842
aF0.5263157894736842
aF0.5263157894736842
aF0.5263157894736842
aF0.25806451612903225
aF0.358974358974359
aF0.41025641025641024
aF0.3181818181818182
aF0.2222222222222222
aF0.45
aF0.375
aF0.2608695652173913
aF1.0
aF0.45454545454545453
aF0.3157894736842105
aF0.2962962962962963
aF0.2962962962962963
aF0.2962962962962963
aF0.25
aF0.3157894736842105
aF0.21052631578947367
aF0.125
aF0.4444444444444444
aF0.23529411764705882
aF0.125
aF0.18181818181818182
aF0.0
aF0.1875
aF0.2564102564102564
aF0.17543859649122806
aF0.2222222222222222
aF0.2
aF0.375
aF0.3333333333333333
aF0.34782608695652173
aF0.25
aF0.32
aF0.13333333333333333
aF0.32432432432432434
aF0.2222222222222222
aF0.21052631578947367
aF0.00125
aI0
aI0
aF0.6
aF0.1
aa(lp3
I0
aF0.5581395348837209
aF0.358974358974359
aF1.0
aF0.6666666666666666
aF0.4
aF0.32432432432432434
aF0.25
aF0.2926829268292683
aF0.2926829268292683
aF0.7428571428571429
aF0.7428571428571429
aF0.7428571428571429
aF0.6857142857142857
aF0.6857142857142857
aF0.6857142857142857
aF0.42857142857142855
aF0.4583333333333333
aF0.4262295081967213
aF0.7428571428571429
aF0.7428571428571429
aF0.7428571428571429
aF0.7428571428571429
aF0.7428571428571429
aF0.35714285714285715
aF0.3333333333333333
aF0.3333333333333333
aF0.43902439024390244
aF0.16666666666666666
aF0.32432432432432434
aF0.41379310344827586
aF0.24
aF0.45454545454545453
aF1.0
aF0.2857142857142857
aF0.20689655172413793
aF0.20689655172413793
aF0.20689655172413793
aF0.2222222222222222
aF0.2857142857142857
aF0.2857142857142857
aF0.3333333333333333
aF0.20689655172413793
aF0.21052631578947367
aF0.3333333333333333
aF0.4166666666666667
aF0.0
aF0.5294117647058824
aF0.24390243902439024
aF0.2033898305084746
aF0.2
aF0.2727272727272727
aF0.2222222222222222
aF0.4
aF0.24
aF0.23076923076923078
aF0.37037037037037035
aF0.23529411764705882
aF0.15384615384615385
aF0.2
aF0.2857142857142857
aI0
aI0
aI0
aF0.61
aF0.15
aa(lp4
I0
aF0.8372093023255814
aF0.6666666666666666
aF0.6666666666666666
aF1.0
aF0.3111111111111111
aF0.5945945945945946
aF0.3125
aF0.34146341463414637
aF0.34146341463414637
aF0.4
aF0.4
aF0.4
aF0.7428571428571429
aF0.7428571428571429
aF0.7428571428571429
aF0.2857142857142857
aF0.3333333333333333
aF0.29508196721311475
aF0.4
aF0.4
aF0.4
aF0.4
aF0.4
aF0.35714285714285715
aF0.3333333333333333
aF0.3333333333333333
aF0.3902439024390244
aF0.25
aF0.4864864864864865
aF0.41379310344827586
aF0.2727272727272727
aF0.3157894736842105
aF0.2857142857142857
aF1.0
aF0.23076923076923078
aF0.23076923076923078
aF0.23076923076923078
aF0.13333333333333333
aF0.4444444444444444
aF0.2222222222222222
aF0.13333333333333333
aF0.3076923076923077
aF0.125
aF0.13333333333333333
aF0.38095238095238093
aF0.13333333333333333
aF0.25806451612903225
aF0.21052631578947367
aF0.21428571428571427
aF0.35294117647058826
aF0.3157894736842105
aF0.13333333333333333
aF0.35294117647058826
aF0.2727272727272727
aF0.2608695652173913
aF0.25
aF0.14285714285714285
aF0.2222222222222222
aF0.11764705882352941
aF0.1111111111111111
aF0.9375
aI0
aI0
aF0.19
aF0.2
aa(lp5
I0
aF0.3076923076923077
aF0.375
aF0.4
aF0.3111111111111111
aF1.0
aF0.30434782608695654
aF0.2926829268292683
aF0.44
aF0.44
aF0.45454545454545453
aF0.45454545454545453
aF0.45454545454545453
aF0.5
aF0.5
aF0.5
aF0.2702702702702703
aF0.45614035087719296
aF0.3142857142857143
aF0.45454545454545453
aF0.45454545454545453
aF0.45454545454545453
aF0.45454545454545453
aF0.45454545454545453
aF0.21621621621621623
aF0.3111111111111111
aF0.3111111111111111
aF0.32
aF0.18181818181818182
aF0.5217391304347826
aF0.3684210526315789
aF0.4666666666666667
aF0.2962962962962963
aF0.20689655172413793
aF0.23076923076923078
aF1.0
aF1.0
aF1.0
aF0.2608695652173913
aF0.3076923076923077
aF0.46153846153846156
aF0.2608695652173913
aF0.4117647058823529
aF0.25
aF0.2608695652173913
aF0.27586206896551724
aF0.17391304347826086
aF0.3076923076923077
aF0.30434782608695654
aF0.3125
aF0.4
aF0.2962962962962963
aF0.34782608695652173
aF0.4
aF0.26666666666666666
aF0.3225806451612903
aF0.3125
aF0.2727272727272727
aF0.3181818181818182
aF0.16
aF0.46153846153846156
aI0
aI0
aI0
aF0.48
aF0.05
aa(lp6
I0
aF0.5
aF0.45
aF0.32432432432432434
aF0.5945945945945946
aF0.30434782608695654
aF1.0
aF0.36363636363636365
aF0.2857142857142857
aF0.2857142857142857
aF0.2777777777777778
aF0.2777777777777778
aF0.2777777777777778
aF0.3333333333333333
aF0.3333333333333333
aF0.3333333333333333
aF0.27586206896551724
aF0.2857142857142857
aF0.3225806451612903
aF0.2777777777777778
aF0.2777777777777778
aF0.2777777777777778
aF0.2777777777777778
aF0.2777777777777778
aF0.13793103448275862
aF0.2702702702702703
aF0.2702702702702703
aF0.3333333333333333
aF0.32
aF0.6842105263157895
aF0.4666666666666667
aF0.4666666666666667
aF0.2962962962962963
aF0.20689655172413793
aF0.23076923076923078
aF1.0
aF1.0
aF1.0
aF0.2608695652173913
aF0.3076923076923077
aF0.46153846153846156
aF0.2608695652173913
aF0.4117647058823529
aF0.25
aF0.2608695652173913
aF0.27586206896551724
aF0.17391304347826086
aF0.3076923076923077
aF0.30434782608695654
aF0.3125
aF0.4
aF0.2962962962962963
aF0.34782608695652173
aF0.4
aF0.26666666666666666
aF0.3225806451612903
aF0.3125
aF0.2727272727272727
aF0.3181818181818182
aF0.16
aF0.46153846153846156
aI0
aI0
aI0
aF0.45
aF0.1
aa(lp7
I0
aF0.3076923076923077
aF0.2857142857142857
aF0.25
aF0.3125
aF0.2926829268292683
aF0.36363636363636365
aF1.0
aF0.7567567567567568
aF0.7567567567567568
aF0.25806451612903225
aF0.25806451612903225
aF0.25806451612903225
aF0.3225806451612903
aF0.3225806451612903
aF0.3225806451612903
aF0.16666666666666666
aF0.22727272727272727
aF0.24561403508771928
aF0.25806451612903225
aF0.25806451612903225
aF0.25806451612903225
aF0.25806451612903225
aF0.25806451612903225
aF0.16666666666666666
aF0.3125
aF0.25
aF0.32432432432432434
aF0.2
aF0.24242424242424243
aF0.48
aF0.4666666666666667
aF0.2962962962962963
aF0.20689655172413793
aF0.23076923076923078
aF1.0
aF1.0
aF1.0
aF0.2608695652173913
aF0.3076923076923077
aF0.46153846153846156
aF0.2608695652173913
aF0.4117647058823529
aF0.25
aF0.2608695652173913
aF0.27586206896551724
aF0.17391304347826086
aF0.3076923076923077
aF0.30434782608695654
aF0.3125
aF0.4
aF0.2962962962962963
aF0.34782608695652173
aF0.4
aF0.26666666666666666
aF0.3225806451612903
aF0.3125
aF0.2727272727272727
aF0.3181818181818182
aF0.16
aF0.46153846153846156
aI0
aI0
aI0
aF0.11
aF0.15
aa(lp8
I0
aF0.375
aF0.3181818181818182
aF0.2926829268292683
aF0.34146341463414637
aF0.44
aF0.2857142857142857
aF0.7567567567567568
aF1.0
aF1.0
aF0.3
aF0.3
aF0.3
aF0.55
aF0.55
aF0.55
aF0.18181818181818182
aF0.22641509433962265
aF0.30303030303030304
aF0.3
aF0.3
aF0.3
aF0.3
aF0.3
aF0.18181818181818182
aF0.34146341463414637
aF0.2926829268292683
aF0.30434782608695654
aF0.13793103448275862
aF0.38095238095238093
aF0.4117647058823529
aF0.21052631578947367
aF0.25
aF0.2222222222222222
aF0.13333333333333333
aF0.2608695652173913
aF0.2608695652173913
aF0.2608695652173913
aF1.0
aF0.13333333333333333
aF0.26666666666666666
aF0.6666666666666666
aF0.17391304347826086
aF0.3076923076923077
aF0.6666666666666666
aF0.2222222222222222
aF0.16666666666666666
aF0.14285714285714285
aF0.17142857142857143
aF0.1509433962264151
aF0.42857142857142855
aF0.625
aF0.3333333333333333
aF0.2857142857142857
aF0.21052631578947367
aF0.4
aF0.2857142857142857
aF0.36363636363636365
aF0.12121212121212122
aF0.2857142857142857
aF0.26666666666666666
aI0
aI0
aI0
aF0.19
aF0.2
aa(lp9
I0
aF0.375
aF0.3181818181818182
aF0.2926829268292683
aF0.34146341463414637
aF0.44
aF0.2857142857142857
aF0.7567567567567568
aF1.0
aF1.0
aF0.3
aF0.3
aF0.3
aF0.55
aF0.55
aF0.55
aF0.18181818181818182
aF0.22641509433962265
aF0.30303030303030304
aF0.3
aF0.3
aF0.3
aF0.3
aF0.3
aF0.18181818181818182
aF0.34146341463414637
aF0.2926829268292683
aF0.30434782608695654
aF0.13793103448275862
aF0.38095238095238093
aF0.4117647058823529
aF0.2727272727272727
aF0.3157894736842105
aF0.2857142857142857
aF0.4444444444444444
aF0.3076923076923077
aF0.3076923076923077
aF0.3076923076923077
aF0.13333333333333333
aF1.0
aF0.2222222222222222
aF0.13333333333333333
aF0.23076923076923078
aF0.25
aF0.13333333333333333
aF0.2857142857142857
aF0.13333333333333333
aF0.1935483870967742
aF0.15789473684210525
aF0.21428571428571427
aF0.11764705882352941
aF0.21052631578947367
aF0.13333333333333333
aF0.23529411764705882
aF0.2727272727272727
aF0.2608695652173913
aF0.16666666666666666
aF0.2857142857142857
aF0.2222222222222222
aF0.0
aF0.1111111111111111
aI0
aI0
aI0
aF0.37
aF0.25
aa(lp10
I0
aF0.5238095238095238
aF0.5263157894736842
aF0.7428571428571429
aF0.4
aF0.45454545454545453
aF0.2777777777777778
aF0.25806451612903225
aF0.3
aF0.3
aF1.0
aF1.0
aF1.0
aF0.4117647058823529
aF0.4117647058823529
aF0.4117647058823529
aF0.37037037037037035
aF0.5106382978723404
aF0.4666666666666667
aF1.0
aF1.0
aF1.0
aF1.0
aF1.0
aF0.2962962962962963
aF0.2857142857142857
aF0.34285714285714286
aF0.4
aF0.17391304347826086
aF0.3888888888888889
aF0.35714285714285715
aF0.2727272727272727
aF0.21052631578947367
aF0.2857142857142857
aF0.2222222222222222
aF0.46153846153846156
aF0.46153846153846156
aF0.46153846153846156
aF0.26666666666666666
aF0.2222222222222222
aF1.0
aF0.26666666666666666
aF0.3076923076923077
aF0.25
aF0.26666666666666666
aF0.19047619047619047
aF0.13333333333333333
aF0.1935483870967742
aF0.10526315789473684
aF0.17857142857142858
aF0.23529411764705882
aF0.3157894736842105
aF0.13333333333333333
aF0.23529411764705882
aF0.18181818181818182
aF0.2608695652173913
aF0.16666666666666666
aF0.2857142857142857
aF0.2222222222222222
aF0.23529411764705882
aF0.3333333333333333
aI0
aI0
aI0
aF0.37
aF0.05
aa(lp11
I0
aF0.5238095238095238
aF0.5263157894736842
aF0.7428571428571429
aF0.4
aF0.45454545454545453
aF0.2777777777777778
aF0.25806451612903225
aF0.3
aF0.3
aF1.0
aF1.0
aF1.0
aF0.4117647058823529
aF0.4117647058823529
aF0.4117647058823529
aF0.37037037037037035
aF0.5106382978723404
aF0.4666666666666667
aF1.0
aF1.0
aF1.0
aF1.0
aF1.0
aF0.2962962962962963
aF0.2857142857142857
aF0.34285714285714286
aF0.4
aF0.17391304347826086
aF0.3888888888888889
aF0.35714285714285715
aF0.21052631578947367
aF0.125
aF0.3333333333333333
aF0.13333333333333333
aF0.2608695652173913
aF0.2608695652173913
aF0.2608695652173913
aF0.6666666666666666
aF0.13333333333333333
aF0.26666666666666666
aF1.0
aF0.17391304347826086
aF0.46153846153846156
aF1.0
aF0.1111111111111111
aF0.16666666666666666
aF0.14285714285714285
aF0.11428571428571428
aF0.1509433962264151
aF0.42857142857142855
aF0.625
aF0.3333333333333333
aF0.2857142857142857
aF0.10526315789473684
aF0.3
aF0.2857142857142857
aF0.36363636363636365
aF0.12121212121212122
aF0.14285714285714285
aF0.26666666666666666
aI0
aI0
aI0
aF0.18
aF0.1
aa(lp12
I0
aF0.5238095238095238
aF0.5263157894736842
aF0.7428571428571429
aF0.4
aF0.45454545454545453
aF0.2777777777777778
aF0.25806451612903225
aF0.3
aF0.3
aF1.0
aF1.0
aF1.0
aF0.4117647058823529
aF0.4117647058823529
aF0.4117647058823529
aF0.37037037037037035
aF0.5106382978723404
aF0.4666666666666667
aF1.0
aF1.0
aF1.0
aF1.0
aF1.0
aF0.2962962962962963
aF0.2857142857142857
aF0.34285714285714286
aF0.4
aF0.17391304347826086
aF0.3888888888888889
aF0.35714285714285715
aF0.4
aF0.4444444444444444
aF0.20689655172413793
aF0.3076923076923077
aF0.4117647058823529
aF0.4117647058823529
aF0.4117647058823529
aF0.17391304347826086
aF0.23076923076923078
aF0.3076923076923077
aF0.17391304347826086
aF1.0
aF0.3333333333333333
aF0.17391304347826086
aF0.4827586206896552
aF0.17391304347826086
aF0.3076923076923077
aF0.2608695652173913
aF0.375
aF0.32
aF0.37037037037037035
aF0.2608695652173913
aF0.24
aF0.3333333333333333
aF0.3225806451612903
aF0.3125
aF0.18181818181818182
aF0.6363636363636364
aF0.32
aF0.23076923076923078
aI0
aI0
aI0
aF0.24
aF0.15
aa(lp13
I0
aF0.6190476190476191
aF0.42105263157894735
aF0.6857142857142857
aF0.7428571428571429
aF0.5
aF0.3333333333333333
aF0.3225806451612903
aF0.55
aF0.55
aF0.4117647058823529
aF0.4117647058823529
aF0.4117647058823529
aF1.0
aF1.0
aF1.0
aF0.2222222222222222
aF0.2553191489361702
aF0.3
aF0.4117647058823529
aF0.4117647058823529
aF0.4117647058823529
aF0.4117647058823529
aF0.4117647058823529
aF0.2962962962962963
aF0.34285714285714286
aF0.34285714285714286
aF0.4
aF0.17391304347826086
aF0.3888888888888889
aF0.42857142857142855
aF0.2
aF0.23529411764705882
aF0.21052631578947367
aF0.125
aF0.25
aF0.25
aF0.25
aF0.3076923076923077
aF0.25
aF0.25
aF0.46153846153846156
aF0.3333333333333333
aF1.0
aF0.46153846153846156
aF0.21052631578947367
aF0.15384615384615385
aF0.20689655172413793
aF0.16666666666666666
aF0.18518518518518517
aF0.4
aF0.35294117647058826
aF0.3076923076923077
aF0.26666666666666666
aF0.2
aF0.2857142857142857
aF0.18181818181818182
aF0.16666666666666666
aF0.23529411764705882
aF0.26666666666666666
aF0.5
aI0
aI0
aI1
aF0.13
aF0.05
aa(lp14
I0
aF0.6190476190476191
aF0.42105263157894735
aF0.6857142857142857
aF0.7428571428571429
aF0.5
aF0.3333333333333333
aF0.3225806451612903
aF0.55
aF0.55
aF0.4117647058823529
aF0.4117647058823529
aF0.4117647058823529
aF1.0
aF1.0
aF1.0
aF0.2222222222222222
aF0.2553191489361702
aF0.3
aF0.4117647058823529
aF0.4117647058823529
aF0.4117647058823529
aF0.4117647058823529
aF0.4117647058823529
aF0.2962962962962963
aF0.34285714285714286
aF0.34285714285714286
aF0.4
aF0.17391304347826086
aF0.3888888888888889
aF0.42857142857142855
aF0.21052631578947367
aF0.125
aF0.3333333333333333
aF0.13333333333333333
aF0.2608695652173913
aF0.2608695652173913
aF0.2608695652173913
aF0.6666666666666666
aF0.13333333333333333
aF0.26666666666666666
aF1.0
aF0.17391304347826086
aF0.46153846153846156
aF1.0
aF0.1111111111111111
aF0.16666666666666666
aF0.14285714285714285
aF0.11428571428571428
aF0.1509433962264151
aF0.42857142857142855
aF0.625
aF0.3333333333333333
aF0.2857142857142857
aF0.10526315789473684
aF0.3
aF0.2857142857142857
aF0.36363636363636365
aF0.12121212121212122
aF0.14285714285714285
aF0.26666666666666666
aI0
aI0
aI0
aF0.14
aF0.1
aa(lp15
I0
aF0.6190476190476191
aF0.42105263157894735
aF0.6857142857142857
aF0.7428571428571429
aF0.5
aF0.3333333333333333
aF0.3225806451612903
aF0.55
aF0.55
aF0.4117647058823529
aF0.4117647058823529
aF0.4117647058823529
aF1.0
aF1.0
aF1.0
aF0.2222222222222222
aF0.2553191489361702
aF0.3
aF0.4117647058823529
aF0.4117647058823529
aF0.4117647058823529
aF0.4117647058823529
aF0.4117647058823529
aF0.2962962962962963
aF0.34285714285714286
aF0.34285714285714286
aF0.4
aF0.17391304347826086
aF0.3888888888888889
aF0.42857142857142855
aF0.32
aF0.18181818181818182
aF0.4166666666666667
aF0.38095238095238093
aF0.27586206896551724
aF0.27586206896551724
aF0.27586206896551724
aF0.2222222222222222
aF0.2857142857142857
aF0.19047619047619047
aF0.1111111111111111
aF0.4827586206896552
aF0.21052631578947367
aF0.1111111111111111
aF1.0
aF0.2222222222222222
aF0.5882352941176471
aF0.24390243902439024
aF0.2711864406779661
aF0.4
aF0.36363636363636365
aF0.3333333333333333
aF0.1
aF0.24
aF0.38461538461538464
aF0.5185185185185185
aF0.23529411764705882
aF0.2564102564102564
aF0.2
aF0.19047619047619047
aI0
aI0
aI0
aF0.51
aF0.15
aa(lp16
I0
aF0.2857142857142857
aF0.3225806451612903
aF0.42857142857142855
aF0.2857142857142857
aF0.2702702702702703
aF0.27586206896551724
aF0.16666666666666666
aF0.18181818181818182
aF0.18181818181818182
aF0.37037037037037035
aF0.37037037037037035
aF0.37037037037037035
aF0.2222222222222222
aF0.2222222222222222
aF0.2222222222222222
aF1.0
aF0.5
aF0.3018867924528302
aF0.37037037037037035
aF0.37037037037037035
aF0.37037037037037035
aF0.37037037037037035
aF0.37037037037037035
aF0.2
aF0.2857142857142857
aF0.2857142857142857
aF0.30303030303030304
aF0.25
aF0.27586206896551724
aF0.38095238095238093
aF0.3157894736842105
aF0.0
aF0.0
aF0.13333333333333333
aF0.17391304347826086
aF0.17391304347826086
aF0.17391304347826086
aF0.16666666666666666
aF0.13333333333333333
aF0.13333333333333333
aF0.16666666666666666
aF0.17391304347826086
aF0.15384615384615385
aF0.16666666666666666
aF0.2222222222222222
aF1.0
aF0.07142857142857142
aF0.11428571428571428
aF0.11320754716981132
aF0.2857142857142857
aF0.25
aF0.16666666666666666
aF0.0
aF0.10526315789473684
aF0.2
aF0.09523809523809523
aF0.18181818181818182
aF0.18181818181818182
aF0.14285714285714285
aF0.13333333333333333
aI0
aI0
aI0
aF0.12
aF0.05
aa(lp17
I0
aF0.32727272727272727
aF0.3137254901960784
aF0.4583333333333333
aF0.3333333333333333
aF0.45614035087719296
aF0.2857142857142857
aF0.22727272727272727
aF0.22641509433962265
aF0.22641509433962265
aF0.5106382978723404
aF0.5106382978723404
aF0.5106382978723404
aF0.2553191489361702
aF0.2553191489361702
aF0.2553191489361702
aF0.5
aF1.0
aF0.3835616438356164
aF0.5106382978723404
aF0.5106382978723404
aF0.5106382978723404
aF0.5106382978723404
aF0.5106382978723404
aF0.2
aF0.25
aF0.25
aF0.3018867924528302
aF0.2222222222222222
aF0.32653061224489793
aF0.24390243902439024
aF0.22857142857142856
aF0.1875
aF0.5294117647058824
aF0.25806451612903225
aF0.3076923076923077
aF0.3076923076923077
aF0.3076923076923077
aF0.14285714285714285
aF0.1935483870967742
aF0.1935483870967742
aF0.14285714285714285
aF0.3076923076923077
aF0.20689655172413793
aF0.14285714285714285
aF0.5882352941176471
aF0.07142857142857142
aF1.0
aF0.19607843137254902
aF0.34782608695652173
aF0.26666666666666666
aF0.25
aF0.21428571428571427
aF0.26666666666666666
aF0.2857142857142857
aF0.4444444444444444
aF0.3783783783783784
aF0.14814814814814814
aF0.24489795918367346
aF0.26666666666666666
aF0.25806451612903225
aI0
aI0
aI0
aF0.11
aF0.1
aa(lp18
I0
aF0.29411764705882354
aF0.34375
aF0.4262295081967213
aF0.29508196721311475
aF0.3142857142857143
aF0.3225806451612903
aF0.24561403508771928
aF0.30303030303030304
aF0.30303030303030304
aF0.4666666666666667
aF0.4666666666666667
aF0.4666666666666667
aF0.3
aF0.3
aF0.3
aF0.3018867924528302
aF0.3835616438356164
aF1.0
aF0.4666666666666667
aF0.4666666666666667
aF0.4666666666666667
aF0.4666666666666667
aF0.4666666666666667
aF0.18867924528301888
aF0.32786885245901637
aF0.32786885245901637
aF0.3333333333333333
aF0.12244897959183673
aF0.3548387096774194
aF0.3333333333333333
aF0.2857142857142857
aF0.2564102564102564
aF0.24390243902439024
aF0.21052631578947367
aF0.30434782608695654
aF0.30434782608695654
aF0.30434782608695654
aF0.17142857142857143
aF0.15789473684210525
aF0.10526315789473684
aF0.11428571428571428
aF0.2608695652173913
aF0.16666666666666666
aF0.11428571428571428
aF0.24390243902439024
aF0.11428571428571428
aF0.19607843137254902
aF1.0
aF0.3684210526315789
aF0.21621621621621623
aF0.20512820512820512
aF0.22857142857142856
aF0.32432432432432434
aF0.23809523809523808
aF0.23255813953488372
aF0.22727272727272727
aF0.11764705882352941
aF0.2857142857142857
aF0.21621621621621623
aF0.15789473684210525
aI0
aI0
aI0
aF0.2
aF0.15
aa(lp19
I0
aF0.5238095238095238
aF0.5263157894736842
aF0.7428571428571429
aF0.4
aF0.45454545454545453
aF0.2777777777777778
aF0.25806451612903225
aF0.3
aF0.3
aF1.0
aF1.0
aF1.0
aF0.4117647058823529
aF0.4117647058823529
aF0.4117647058823529
aF0.37037037037037035
aF0.5106382978723404
aF0.4666666666666667
aF1.0
aF1.0
aF1.0
aF1.0
aF1.0
aF0.2962962962962963
aF0.2857142857142857
aF0.34285714285714286
aF0.4
aF0.17391304347826086
aF0.3888888888888889
aF0.35714285714285715
aF0.3
aF0.17543859649122806
aF0.2033898305084746
aF0.21428571428571427
aF0.3125
aF0.3125
aF0.3125
aF0.1509433962264151
aF0.21428571428571427
aF0.17857142857142858
aF0.1509433962264151
aF0.375
aF0.18518518518518517
aF0.1509433962264151
aF0.2711864406779661
aF0.11320754716981132
aF0.34782608695652173
aF0.3684210526315789
aF1.0
aF0.2909090909090909
aF0.2807017543859649
aF0.18867924528301888
aF0.21818181818181817
aF0.26666666666666666
aF0.22950819672131148
aF0.3225806451612903
aF0.11538461538461539
aF0.35135135135135137
aF0.21818181818181817
aF0.25
aI0
aI0
aI0
aF0.81
aF0.05
aa(lp20
I0
aF0.5238095238095238
aF0.5263157894736842
aF0.7428571428571429
aF0.4
aF0.45454545454545453
aF0.2777777777777778
aF0.25806451612903225
aF0.3
aF0.3
aF1.0
aF1.0
aF1.0
aF0.4117647058823529
aF0.4117647058823529
aF0.4117647058823529
aF0.37037037037037035
aF0.5106382978723404
aF0.4666666666666667
aF1.0
aF1.0
aF1.0
aF1.0
aF1.0
aF0.2962962962962963
aF0.2857142857142857
aF0.34285714285714286
aF0.4
aF0.17391304347826086
aF0.3888888888888889
aF0.35714285714285715
aF0.2857142857142857
aF0.2222222222222222
aF0.2
aF0.35294117647058826
aF0.4
aF0.4
aF0.4
aF0.42857142857142855
aF0.11764705882352941
aF0.23529411764705882
aF0.42857142857142855
aF0.32
aF0.4
aF0.42857142857142855
aF0.4
aF0.2857142857142857
aF0.26666666666666666
aF0.21621621621621623
aF0.2909090909090909
aF1.0
aF0.4444444444444444
aF0.5714285714285714
aF0.25
aF0.2857142857142857
aF0.2727272727272727
aF0.2608695652173913
aF0.15384615384615385
aF0.22857142857142856
aF0.375
aF0.35294117647058826
aI0
aI0
aI0
aF0.82
aF0.1
aa(lp21
I0
aF0.5238095238095238
aF0.5263157894736842
aF0.7428571428571429
aF0.4
aF0.45454545454545453
aF0.2777777777777778
aF0.25806451612903225
aF0.3
aF0.3
aF1.0
aF1.0
aF1.0
aF0.4117647058823529
aF0.4117647058823529
aF0.4117647058823529
aF0.37037037037037035
aF0.5106382978723404
aF0.4666666666666667
aF1.0
aF1.0
aF1.0
aF1.0
aF1.0
aF0.2962962962962963
aF0.2857142857142857
aF0.34285714285714286
aF0.4
aF0.17391304347826086
aF0.3888888888888889
aF0.35714285714285715
aF0.34782608695652173
aF0.2
aF0.2727272727272727
aF0.3157894736842105
aF0.2962962962962963
aF0.2962962962962963
aF0.2962962962962963
aF0.625
aF0.21052631578947367
aF0.3157894736842105
aF0.625
aF0.37037037037037035
aF0.35294117647058826
aF0.625
aF0.36363636363636365
aF0.25
aF0.25
aF0.20512820512820512
aF0.2807017543859649
aF0.4444444444444444
aF1.0
aF0.375
aF0.2222222222222222
aF0.34782608695652173
aF0.3333333333333333
aF0.32
aF0.26666666666666666
aF0.32432432432432434
aF0.3333333333333333
aF0.3157894736842105
aI0
aI0
aI0
aF0.13
aF0.15
aa(lp22
I0
aF0.5238095238095238
aF0.5263157894736842
aF0.7428571428571429
aF0.4
aF0.45454545454545453
aF0.2777777777777778
aF0.25806451612903225
aF0.3
aF0.3
aF1.0
aF1.0
aF1.0
aF0.4117647058823529
aF0.4117647058823529
aF0.4117647058823529
aF0.37037037037037035
aF0.5106382978723404
aF0.4666666666666667
aF1.0
aF1.0
aF1.0
aF1.0
aF1.0
aF0.2962962962962963
aF0.2857142857142857
aF0.34285714285714286
aF0.4
aF0.17391304347826086
aF0.3888888888888889
aF0.35714285714285715
aF0.21052631578947367
aF0.375
aF0.2222222222222222
aF0.13333333333333333
aF0.34782608695652173
aF0.34782608695652173
aF0.34782608695652173
aF0.3333333333333333
aF0.13333333333333333
aF0.13333333333333333
aF0.3333333333333333
aF0.2608695652173913
aF0.3076923076923077
aF0.3333333333333333
aF0.3333333333333333
aF0.16666666666666666
aF0.21428571428571427
aF0.22857142857142856
aF0.18867924528301888
aF0.5714285714285714
aF0.375
aF1.0
aF0.14285714285714285
aF0.21052631578947367
aF0.3
aF0.19047619047619047
aF0.36363636363636365
aF0.18181818181818182
aF0.2857142857142857
aF0.4
aF0.0025
aI0
aI0
aF0.31
aF0.2
aa(lp23
I0
aF0.5238095238095238
aF0.5263157894736842
aF0.7428571428571429
aF0.4
aF0.45454545454545453
aF0.2777777777777778
aF0.25806451612903225
aF0.3
aF0.3
aF1.0
aF1.0
aF1.0
aF0.4117647058823529
aF0.4117647058823529
aF0.4117647058823529
aF0.37037037037037035
aF0.5106382978723404
aF0.4666666666666667
aF1.0
aF1.0
aF1.0
aF1.0
aF1.0
aF0.2962962962962963
aF0.2857142857142857
aF0.34285714285714286
aF0.4
aF0.17391304347826086
aF0.3888888888888889
aF0.35714285714285715
aF0.2857142857142857
aF0.3333333333333333
aF0.4
aF0.35294117647058826
aF0.4
aF0.4
aF0.4
aF0.2857142857142857
aF0.23529411764705882
aF0.23529411764705882
aF0.2857142857142857
aF0.24
aF0.26666666666666666
aF0.2857142857142857
aF0.1
aF0.0
aF0.26666666666666666
aF0.32432432432432434
aF0.21818181818181817
aF0.25
aF0.2222222222222222
aF0.14285714285714285
aF1.0
aF0.09523809523809523
aF0.2727272727272727
aF0.2608695652173913
aF0.3076923076923077
aF0.17142857142857143
aF0.125
aF0.11764705882352941
aI0
aI0
aI0
aF0.18
aF0.25
aa(lp24
I0
aF0.34285714285714286
aF0.25806451612903225
aF0.35714285714285715
aF0.35714285714285715
aF0.21621621621621623
aF0.13793103448275862
aF0.16666666666666666
aF0.18181818181818182
aF0.18181818181818182
aF0.2962962962962963
aF0.2962962962962963
aF0.2962962962962963
aF0.2962962962962963
aF0.2962962962962963
aF0.2962962962962963
aF0.2
aF0.2
aF0.18867924528301888
aF0.2962962962962963
aF0.2962962962962963
aF0.2962962962962963
aF0.2962962962962963
aF0.2962962962962963
aF1.0
aF0.2857142857142857
aF0.2857142857142857
aF0.24242424242424243
aF0.125
aF0.20689655172413793
aF0.19047619047619047
aF0.3076923076923077
aF0.34782608695652173
aF0.24
aF0.2727272727272727
aF0.26666666666666666
aF0.26666666666666666
aF0.26666666666666666
aF0.21052631578947367
aF0.2727272727272727
aF0.18181818181818182
aF0.10526315789473684
aF0.3333333333333333
aF0.2
aF0.10526315789473684
aF0.24
aF0.10526315789473684
aF0.2857142857142857
aF0.23809523809523808
aF0.26666666666666666
aF0.2857142857142857
aF0.34782608695652173
aF0.21052631578947367
aF0.09523809523809523
aF1.0
aF0.37037037037037035
aF0.2857142857142857
aF0.2222222222222222
aF0.2
aF0.2857142857142857
aF0.36363636363636365
aI0
aI0
aI0
aF0.18
aF0.3
aa(lp25
I0
aF0.32558139534883723
aF0.358974358974359
aF0.3333333333333333
aF0.3333333333333333
aF0.3111111111111111
aF0.2702702702702703
aF0.3125
aF0.34146341463414637
aF0.34146341463414637
aF0.2857142857142857
aF0.2857142857142857
aF0.2857142857142857
aF0.34285714285714286
aF0.34285714285714286
aF0.34285714285714286
aF0.2857142857142857
aF0.25
aF0.32786885245901637
aF0.2857142857142857
aF0.2857142857142857
aF0.2857142857142857
aF0.2857142857142857
aF0.2857142857142857
aF0.2857142857142857
aF1.0
aF0.9444444444444444
aF0.4878048780487805
aF0.16666666666666666
aF0.32432432432432434
aF0.41379310344827586
aF0.2222222222222222
aF0.25
aF0.23076923076923078
aF0.2608695652173913
aF0.3225806451612903
aF0.3225806451612903
aF0.3225806451612903
aF0.4
aF0.2608695652173913
aF0.2608695652173913
aF0.3
aF0.3225806451612903
aF0.2857142857142857
aF0.3
aF0.38461538461538464
aF0.2
aF0.4444444444444444
aF0.23255813953488372
aF0.22950819672131148
aF0.2727272727272727
aF0.3333333333333333
aF0.3
aF0.2727272727272727
aF0.37037037037037035
aF1.0
aF0.3448275862068966
aF0.3157894736842105
aF0.24390243902439024
aF0.2727272727272727
aF0.43478260869565216
aF3.75e-05
aI0
aI0
aF0.19
aF0.05
aa(lp26
I0
aF0.37209302325581395
aF0.41025641025641024
aF0.3333333333333333
aF0.3333333333333333
aF0.3111111111111111
aF0.2702702702702703
aF0.25
aF0.2926829268292683
aF0.2926829268292683
aF0.34285714285714286
aF0.34285714285714286
aF0.34285714285714286
aF0.34285714285714286
aF0.34285714285714286
aF0.34285714285714286
aF0.2857142857142857
aF0.25
aF0.32786885245901637
aF0.34285714285714286
aF0.34285714285714286
aF0.34285714285714286
aF0.34285714285714286
aF0.34285714285714286
aF0.2857142857142857
aF0.9444444444444444
aF1.0
aF0.4878048780487805
aF0.16666666666666666
aF0.3783783783783784
aF0.41379310344827586
aF0.2857142857142857
aF0.32
aF0.37037037037037035
aF0.25
aF0.3125
aF0.3125
aF0.3125
aF0.2857142857142857
aF0.16666666666666666
aF0.16666666666666666
aF0.2857142857142857
aF0.3125
aF0.18181818181818182
aF0.2857142857142857
aF0.5185185185185185
aF0.09523809523809523
aF0.3783783783783784
aF0.22727272727272727
aF0.3225806451612903
aF0.2608695652173913
aF0.32
aF0.19047619047619047
aF0.2608695652173913
aF0.2857142857142857
aF0.3448275862068966
aF1.0
aF0.2
aF0.2857142857142857
aF0.2608695652173913
aF0.3333333333333333
aI0
aI0
aI0
aF0.3
aF0.1
aa(lp27
I0
aF0.375
aF0.3181818181818182
aF0.43902439024390244
aF0.3902439024390244
aF0.32
aF0.3333333333333333
aF0.32432432432432434
aF0.30434782608695654
aF0.30434782608695654
aF0.4
aF0.4
aF0.4
aF0.4
aF0.4
aF0.4
aF0.30303030303030304
aF0.3018867924528302
aF0.3333333333333333
aF0.4
aF0.4
aF0.4
aF0.4
aF0.4
aF0.24242424242424243
aF0.4878048780487805
aF0.4878048780487805
aF1.0
aF0.13793103448275862
aF0.38095238095238093
aF0.35294117647058826
aF0.1111111111111111
aF0.13333333333333333
aF0.23529411764705882
aF0.14285714285714285
aF0.2727272727272727
aF0.2727272727272727
aF0.2727272727272727
aF0.36363636363636365
aF0.2857142857142857
aF0.2857142857142857
aF0.36363636363636365
aF0.18181818181818182
aF0.16666666666666666
aF0.36363636363636365
aF0.23529411764705882
aF0.18181818181818182
aF0.14814814814814814
aF0.11764705882352941
aF0.11538461538461539
aF0.15384615384615385
aF0.26666666666666666
aF0.36363636363636365
aF0.3076923076923077
aF0.2222222222222222
aF0.3157894736842105
aF0.2
aF1.0
aF0.125
aF0.15384615384615385
aF0.14285714285714285
aI0
aI0
aI0
aF0.48
aF0.15
aa(lp28
I0
aF0.1935483870967742
aF0.2222222222222222
aF0.16666666666666666
aF0.25
aF0.18181818181818182
aF0.32
aF0.2
aF0.13793103448275862
aF0.13793103448275862
aF0.17391304347826086
aF0.17391304347826086
aF0.17391304347826086
aF0.17391304347826086
aF0.17391304347826086
aF0.17391304347826086
aF0.25
aF0.2222222222222222
aF0.12244897959183673
aF0.17391304347826086
aF0.17391304347826086
aF0.17391304347826086
aF0.17391304347826086
aF0.17391304347826086
aF0.125
aF0.16666666666666666
aF0.16666666666666666
aF0.13793103448275862
aF1.0
aF0.32
aF0.23529411764705882
aF0.3
aF0.32432432432432434
aF0.15384615384615385
aF0.2222222222222222
aF0.3181818181818182
aF0.3181818181818182
aF0.3181818181818182
aF0.12121212121212122
aF0.2222222222222222
aF0.2222222222222222
aF0.12121212121212122
aF0.6363636363636364
aF0.23529411764705882
aF0.12121212121212122
aF0.2564102564102564
aF0.18181818181818182
aF0.24489795918367346
aF0.2857142857142857
aF0.35135135135135137
aF0.22857142857142856
aF0.32432432432432434
aF0.18181818181818182
aF0.17142857142857143
aF0.2
aF0.24390243902439024
aF0.2857142857142857
aF0.125
aF1.0
aF0.2857142857142857
aF0.16666666666666666
aI0
aI0
aI0
aF0.23
aF0.2
aa(lp29
I0
aF0.4090909090909091
aF0.45
aF0.32432432432432434
aF0.4864864864864865
aF0.5217391304347826
aF0.6842105263157895
aF0.24242424242424243
aF0.38095238095238093
aF0.38095238095238093
aF0.3888888888888889
aF0.3888888888888889
aF0.3888888888888889
aF0.3888888888888889
aF0.3888888888888889
aF0.3888888888888889
aF0.27586206896551724
aF0.32653061224489793
aF0.3548387096774194
aF0.3888888888888889
aF0.3888888888888889
aF0.3888888888888889
aF0.3888888888888889
aF0.3888888888888889
aF0.20689655172413793
aF0.32432432432432434
aF0.3783783783783784
aF0.38095238095238093
aF0.32
aF1.0
aF0.4
aF0.19047619047619047
aF0.2222222222222222
aF0.2
aF0.11764705882352941
aF0.16
aF0.16
aF0.16
aF0.2857142857142857
aF0.0
aF0.23529411764705882
aF0.14285714285714285
aF0.32
aF0.26666666666666666
aF0.14285714285714285
aF0.2
aF0.14285714285714285
aF0.26666666666666666
aF0.21621621621621623
aF0.21818181818181817
aF0.375
aF0.3333333333333333
aF0.2857142857142857
aF0.125
aF0.2857142857142857
aF0.2727272727272727
aF0.2608695652173913
aF0.15384615384615385
aF0.2857142857142857
aF1.0
aF0.35294117647058826
aI0
aI0
aI0
aF0.25
aF0.25
aa(lp30
I0
aF0.3333333333333333
aF0.375
aF0.41379310344827586
aF0.41379310344827586
aF0.3684210526315789
aF0.4666666666666667
aF0.48
aF0.4117647058823529
aF0.4117647058823529
aF0.35714285714285715
aF0.35714285714285715
aF0.35714285714285715
aF0.42857142857142855
aF0.42857142857142855
aF0.42857142857142855
aF0.38095238095238093
aF0.24390243902439024
aF0.3333333333333333
aF0.35714285714285715
aF0.35714285714285715
aF0.35714285714285715
aF0.35714285714285715
aF0.35714285714285715
aF0.19047619047619047
aF0.41379310344827586
aF0.41379310344827586
aF0.35294117647058826
aF0.23529411764705882
aF0.4
aF1.0
aF0.18181818181818182
aF0.21052631578947367
aF0.2857142857142857
aF0.1111111111111111
aF0.46153846153846156
aF0.46153846153846156
aF0.46153846153846156
aF0.26666666666666666
aF0.1111111111111111
aF0.3333333333333333
aF0.26666666666666666
aF0.23076923076923078
aF0.5
aF0.26666666666666666
aF0.19047619047619047
aF0.13333333333333333
aF0.25806451612903225
aF0.15789473684210525
aF0.25
aF0.35294117647058826
aF0.3157894736842105
aF0.4
aF0.11764705882352941
aF0.36363636363636365
aF0.43478260869565216
aF0.3333333333333333
aF0.14285714285714285
aF0.16666666666666666
aF0.35294117647058826
aF1.0
aI0
aI0
aI0
aF0.19
aF0.3
aa.